###############################################################################
#                                                                             #
# IAR C/C++ Compiler V1.30.1.50036 for STM8             12/Mar/2014  17:33:12 #
# Copyright 2010-2011 IAR Systems AB.                                         #
#                                                                             #
#    Source file  =  F:\Skydrive\Final Design\Servo Motor                     #
#                    STM8L\Project\Discover\src\main.c                        #
#    Command line =  "F:\Skydrive\Final Design\Servo Motor                    #
#                    STM8L\Project\Discover\src\main.c" -e -Ol --no_cse       #
#                    --no_unroll --no_inline --no_code_motion --no_tbaa       #
#                    --no_cross_call --debug --code_model small --data_model  #
#                    medium -o "F:\Skydrive\Final Design\Servo Motor          #
#                    STM8L\Debug\Obj\" --dlib_config "D:\IAR                  #
#                    Systems\Embedded Workbench 6.0\stm8\LIB\dlstm8smn.h" -D  #
#                    STM8L15X_MD -lCN "F:\Skydrive\Final Design\Servo Motor   #
#                    STM8L\Debug\List\" --diag_suppress Pe177,Pe550 -I        #
#                    "F:\Skydrive\Final Design\Servo Motor                    #
#                    STM8L\Project\Discover\inc\" -I "F:\Skydrive\Final       #
#                    Design\Servo Motor STM8L\Libraries\STM8L15x_StdPeriph_Dr #
#                    iver\inc\" --vregs 16                                    #
#    List file    =  F:\Skydrive\Final Design\Servo Motor                     #
#                    STM8L\Debug\List\main.lst                                #
#    Object file  =  F:\Skydrive\Final Design\Servo Motor                     #
#                    STM8L\Debug\Obj\main.o                                   #
#                                                                             #
#                                                                             #
###############################################################################

F:\Skydrive\Final Design\Servo Motor STM8L\Project\Discover\src\main.c
      1          
      2          /* Includes ------------------------------------------------------------------*/
      3          #include "stm8l15x.h"
      4          
      5          /* Private typedef -----------------------------------------------------------*/
      6          /* Private define ------------------------------------------------------------*/
      7          #define TIM2_PERIOD             65535
      8          #define TIM2_PRESCALER              39999
      9          #define TIM2_REPTETION_COUNTER      0
     10          
     11          /* Private macro -------------------------------------------------------------*/
     12          /* Private variables ---------------------------------------------------------*/

   \                                 In section .near.data, align 1
     13          __IO uint16_t CCR1_Val = 30000;
   \                     CCR1_Val:
   \   000000 7530                  DC16 30000

   \                                 In section .near.data, align 1
     14          __IO uint16_t CCR2_Val = 16384;
   \                     CCR2_Val:
   \   000000 4000                  DC16 16384

   \                                 In section .near.data, align 1
     15          __IO uint16_t CCR3_Val = 8192;
   \                     CCR3_Val:
   \   000000 2000                  DC16 8192
     16          
     17          /* Private function prototypes -----------------------------------------------*/
     18          static void CLK_Config(void);
     19          static void GPIO_Config(void);
     20          static void TIM2_Config(void);
     21          static void USART_Config(void);
     22          
     23          void USART_SendByte(uint8_t data);
     24          void USART_SendString(uint8_t* Data, uint16_t len);
     25          uint8_t USART_ReceiveByte(void);
     26          void Delay(int);
     27          /* Private functions ---------------------------------------------------------*/
     28          
     29          /**
     30            * @brief  Main program.
     31            * @param  None
     32            * @retval None
     33            */

   \                                 In section .near_func.text, align 1
     34          void main(void)
     35          {
     36            __enable_interrupt(); 
   \                     main:
   \   000000 9A                    RIM
     37            CLK_Config(); 
   \   000001 CD0000                CALL      L:CLK_Config
     38            GPIO_Config();   
   \   000004 CD0000                CALL      L:GPIO_Config
     39            TIM2_Config();  
   \   000007 CD0000                CALL      L:TIM2_Config
     40            USART_Config();
   \   00000A CD0000                CALL      L:USART_Config
     41            USART_SendString("Test\n", sizeof("Test\n"));
   \   00000D 90AE0006              LDW       Y, #0x6
   \   000011 AE0000                LDW       X, #`?<Constant "Test\\n">`
   \   000014 CD0000                CALL      L:USART_SendString
     42            //delay_10us(100);
     43            //USART_SendByte("\n");
     44            Delay(100);
   \   000017 AE0064                LDW       X, #0x64
   \   00001A CD0000                CALL      L:Delay
     45          
     46            while (1)
     47            {
     48              USART_SendString("Test\n", sizeof("Test\n"));
   \                     ??main_0:
   \   00001D 90AE0006              LDW       Y, #0x6
   \   000021 AE0000                LDW       X, #`?<Constant "Test\\n">`
   \   000024 CD0000                CALL      L:USART_SendString
     49              while (USART_GetFlagStatus(USART1, USART_FLAG_TC) == RESET);
   \                     ??main_1:
   \   000027 90AE0040              LDW       Y, #0x40
   \   00002B AE5230                LDW       X, #0x5230
   \   00002E CD0000                CALL      L:USART_GetFlagStatus
   \   000031 A100                  CP        A, #0x0
   \   000033 26E8                  JRNE      L:??main_0
   \   000035 20F0                  JRA       L:??main_1
     50            }
     51          }
     52          
     53          /**
     54            * @brief  Configure peripherals 
     55            */

   \                                 In section .near_func.text, align 1
     56          static void CLK_Config(void)
     57          {
     58            /* Enable TIM1 clock */
     59            CLK_PeripheralClockConfig(CLK_Peripheral_TIM2, ENABLE);
   \                     CLK_Config:
   \   000000 35010000              MOV       S:?b0, #0x1
   \   000004 4F                    CLR       A
   \   000005 CC0000                JP        L:CLK_PeripheralClockConfig
     60          }
     61          

   \                                 In section .near_func.text, align 1
     62          static void GPIO_Config(void)
     63          {
     64            /* GPIOD configuration: TIM1 channel 1 (PD2), channel 2 (PD4) and channel 3 (PD5) */
     65            GPIO_Init(GPIOB, GPIO_Pin_0, GPIO_Mode_Out_PP_Low_Fast);
   \                     GPIO_Config:
   \   000000 35E00000              MOV       S:?b0, #0xe0
   \   000004 A601                  LD        A, #0x1
   \   000006 AE5005                LDW       X, #0x5005
   \   000009 CD0000                CALL      L:GPIO_Init
     66            GPIO_Init(GPIOE, GPIO_Pin_7, GPIO_Mode_Out_PP_High_Fast);
   \   00000C 35F00000              MOV       S:?b0, #0xf0
   \   000010 A680                  LD        A, #0x80
   \   000012 AE5014                LDW       X, #0x5014
   \   000015 CC0000                JP        L:GPIO_Init
     67            //GPIO_SetBits(GPIOE, GPIO_Pin_7);
     68          }
     69          

   \                                 In section .near_func.text, align 1
     70          static void TIM2_Config(void)
     71          {
     72            /*
     73            - TIM1CLK = 2 MHz
     74            - TIM1 counter clock = TIM1CLK / TIM1_PRESCALER+1 = 2 MHz/39999+1 = 50 Hz
     75            */
     76            /*
     77            - The TIM1 CCR1 register value is equal to 3000: 
     78            - So the TIM1 Channel 1 generates a periodic signal with a frequency equal to 50 Hz.
     79            - PB0
     80            */
     81            /* PWM1 Mode configuration: Channel1 */
     82            TIM2_TimeBaseInit(TIM2_Prescaler_1, TIM2_CounterMode_Up, 39999);
   \                     TIM2_Config:
   \   000000 AE9C3F                LDW       X, #0x9c3f
   \   000003 3F00                  CLR       S:?b0
   \   000005 4F                    CLR       A
   \   000006 CD0000                CALL      L:TIM2_TimeBaseInit
     83            TIM2_OC1Init(TIM2_OCMode_PWM1, TIM2_OutputState_Enable, 0, TIM2_OCPolarity_High, TIM2_OCIdleState_Set);
   \   000009 35010000              MOV       S:?b2, #0x1
   \   00000D 3F00                  CLR       S:?b1
   \   00000F 5F                    CLRW      X
   \   000010 35010000              MOV       S:?b0, #0x1
   \   000014 A660                  LD        A, #0x60
   \   000016 CD0000                CALL      L:TIM2_OC1Init
     84            TIM2_OC1PreloadConfig(ENABLE);
   \   000019 A601                  LD        A, #0x1
   \   00001B CD0000                CALL      L:TIM2_OC1PreloadConfig
     85            TIM2_CtrlPWMOutputs(ENABLE);
   \   00001E A601                  LD        A, #0x1
   \   000020 CD0000                CALL      L:TIM2_CtrlPWMOutputs
     86            TIM2_SetCompare1(3000);
   \   000023 AE0BB8                LDW       X, #0xbb8
   \   000026 CD0000                CALL      L:TIM2_SetCompare1
     87            TIM2_Cmd(ENABLE);
   \   000029 A601                  LD        A, #0x1
   \   00002B CC0000                JP        L:TIM2_Cmd
     88          }
     89          

   \                                 In section .near_func.text, align 1
     90          static void USART_Config(void)
     91          {
     92            GPIO_Init(GPIOC,GPIO_Pin_2,GPIO_Mode_In_PU_No_IT);
   \                     USART_Config:
   \   000000 35400000              MOV       S:?b0, #0x40
   \   000004 A604                  LD        A, #0x4
   \   000006 AE500A                LDW       X, #0x500a
   \   000009 CD0000                CALL      L:GPIO_Init
     93            GPIO_Init(GPIOC,GPIO_Pin_3,GPIO_Mode_Out_PP_Low_Fast);
   \   00000C 35E00000              MOV       S:?b0, #0xe0
   \   000010 A608                  LD        A, #0x8
   \   000012 AE500A                LDW       X, #0x500a
   \   000015 CD0000                CALL      L:GPIO_Init
     94            CLK_PeripheralClockConfig(CLK_Peripheral_USART1, ENABLE);
   \   000018 35010000              MOV       S:?b0, #0x1
   \   00001C A605                  LD        A, #0x5
   \   00001E CD0000                CALL      L:CLK_PeripheralClockConfig
     95            //GPIO_ExternalPullUpConfig(GPIOA, GPIO_Pin_2|GPIO_Pin_3, ENABLE);
     96            USART_DeInit(USART1);  
   \   000021 AE5230                LDW       X, #0x5230
   \   000024 CD0000                CALL      L:USART_DeInit
     97            USART_Init(USART1,
     98                       9600, 
     99                       USART_WordLength_8b,
    100                       USART_StopBits_1,
    101                       USART_Parity_No,
    102                       USART_Mode_Tx | USART_Mode_Rx);
   \   000027 350C0000              MOV       S:?b6, #0xc
   \   00002B 3F00                  CLR       S:?b5
   \   00002D 3F00                  CLR       S:?b4
   \   00002F 4F                    CLR       A
   \   000030 AE2580                LDW       X, #0x2580
   \   000033 BF00                  LDW       S:?w1, X
   \   000035 5F                    CLRW      X
   \   000036 BF00                  LDW       S:?w0, X
   \   000038 AE5230                LDW       X, #0x5230
   \   00003B CD0000                CALL      L:USART_Init
    103            USART_ClockInit(USART1,USART_Clock_Disable,USART_CPOL_Low,USART_CPHA_2Edge,USART_LastBit_Disable);
   \   00003E 3F00                  CLR       S:?b2
   \   000040 35020000              MOV       S:?b1, #0x2
   \   000044 3F00                  CLR       S:?b0
   \   000046 4F                    CLR       A
   \   000047 AE5230                LDW       X, #0x5230
   \   00004A CD0000                CALL      L:USART_ClockInit
    104            USART_ClearITPendingBit(USART1,USART_IT_RXNE);
   \   00004D 90AE0255              LDW       Y, #0x255
   \   000051 AE5230                LDW       X, #0x5230
   \   000054 CD0000                CALL      L:USART_ClearITPendingBit
    105            USART_ITConfig(USART1, USART_IT_OR, ENABLE);
   \   000057 A601                  LD        A, #0x1
   \   000059 90AE0235              LDW       Y, #0x235
   \   00005D AE5230                LDW       X, #0x5230
   \   000060 CD0000                CALL      L:USART_ITConfig
    106            USART_Cmd(USART1, ENABLE);
   \   000063 A601                  LD        A, #0x1
   \   000065 AE5230                LDW       X, #0x5230
   \   000068 CC0000                JP        L:USART_Cmd
    107          }
    108          
    109          

   \                                 In section .near_func.text, align 1
    110          void USART_SendByte(uint8_t data)
    111          {
    112            USART_SendData8(USART1, (unsigned char)data);
   \                     USART_SendByte:
   \   000000 AE5230                LDW       X, #0x5230
   \   000003 CD0000                CALL      L:USART_SendData8
    113            /* Loop until the end of transmission */
    114            while(USART_GetFlagStatus(USART1, USART_FLAG_TXE) == RESET);
   \                     ??USART_SendByte_0:
   \   000006 90AE0080              LDW       Y, #0x80
   \   00000A AE5230                LDW       X, #0x5230
   \   00000D CD0000                CALL      L:USART_GetFlagStatus
   \   000010 A100                  CP        A, #0x0
   \   000012 27F2                  JREQ      L:??USART_SendByte_0
    115          }
   \   000014 81                    RET
    116          

   \                                 In section .near_func.text, align 1
    117          void USART_SendString(uint8_t* Data, uint16_t len)
    118          {
   \                     USART_SendString:
   \   000000 CD0000                CALL      L:?push_l2
   \   000003 CD0000                CALL      L:?push_w6
   \   000006 BF00                  LDW       S:?w6, X
   \   000008 90BF00                LDW       S:?w5, Y
    119            //unit16_t i = 0;
    120            for(int i = 0; i < len; i++)
   \   00000B 3F00                  CLR       S:?b9
   \   00000D 3F00                  CLR       S:?b8
   \   00000F 200F                  JRA       L:??USART_SendString_0
    121            {
    122              USART_SendByte(Data[i]);  
   \                     ??USART_SendString_1:
   \   000011 BE00                  LDW       X, S:?w4
   \   000013 72BB0000              ADDW      X, S:?w6
   \   000017 F6                    LD        A, (X)
   \   000018 CD0000                CALL      L:USART_SendByte
    123            }
   \   00001B BE00                  LDW       X, S:?w4
   \   00001D 5C                    INCW      X
   \   00001E BF00                  LDW       S:?w4, X
   \                     ??USART_SendString_0:
   \   000020 BE00                  LDW       X, S:?w4
   \   000022 B300                  CPW       X, S:?w5
   \   000024 25EB                  JRC       L:??USART_SendString_1
    124          }
   \   000026 CC0000                JP        L:?epilogue_l2_w6
    125          

   \                                 In section .near_func.text, align 1
    126          uint8_t USART_ReceiveByte(void)
    127          {
    128            uint8_t USART_RX_BUF;
    129            while(USART_GetFlageStatus(USART1, USART_FLAG_RXNE) == RESET);
   \                     USART_ReceiveByte:
   \                     ??USART_ReceiveByte_0:
   \   000000 90AE0020              LDW       Y, #0x20
   \   000004 AE5230                LDW       X, #0x5230
   \   000007 CD0000                CALL      L:USART_GetFlageStatus
   \   00000A 5D                    TNZW      X
   \   00000B 27F3                  JREQ      L:??USART_ReceiveByte_0
    130            USART_RX_BUF = USART_ReceiveData8(USART1);
   \   00000D AE5230                LDW       X, #0x5230
   \   000010 CC0000                JP        L:USART_ReceiveData8
    131            return USART_RX_BUF;
    132          }
    133          

   \                                 In section .near_func.text, align 1
    134          void Delay(int time)
    135          {
   \                     Delay:
   \   000000 BF00                  LDW       S:?w0, X
    136            for(int i = 0; i < time; i++)
   \   000002 905F                  CLRW      Y
   \   000004 2008                  JRA       L:??Delay_0
    137              for(int j = 0; j < 100; j++);
   \                     ??Delay_1:
   \   000006 5C                    INCW      X
   \                     ??Delay_2:
   \   000007 A30064                CPW       X, #0x64
   \   00000A 2FFA                  JRSLT     L:??Delay_1
   \   00000C 905C                  INCW      Y
   \                     ??Delay_0:
   \   00000E 90B300                CPW       Y, S:?w0
   \   000011 2E03                  JRSGE     L:??Delay_3
   \   000013 5F                    CLRW      X
   \   000014 20F1                  JRA       L:??Delay_2
    138          }
   \                     ??Delay_3:
   \   000016 81                    RET

   \                                 In section .near.rodata, align 1
   \                     `?<Constant "Test\\n">`:
   \   000000 546573740A00          DC8 "Test\012"
    139          
    140          
    141          #ifdef  USE_FULL_ASSERT
    142          
    143          void assert_failed(uint8_t* file, uint32_t line)
    144          {
    145            /* User can add his own implementation to report the file name and line number,
    146               ex: printf("Wrong parameters value: file %s on line %d\r\n", file, line) */
    147          
    148            /* Infinite loop */
    149            while (1)
    150            {}
    151          }
    152          #endif

   Section sizes:

     Function/Label       Bytes
     --------------       -----
     CCR1_Val                2
     CCR2_Val                2
     CCR3_Val                2
     main                   55
     CLK_Config              8
     GPIO_Config            24
     TIM2_Config            46
     USART_Config          107
     USART_SendByte         21
     USART_SendString       41
     USART_ReceiveByte      19
     Delay                  23
     ?<Constant "Test\n">    6

 
   6 bytes in section .near.data
   6 bytes in section .near.rodata
 344 bytes in section .near_func.text
 
 344 bytes of CODE  memory
   6 bytes of CONST memory
   6 bytes of DATA  memory

Errors: none
Warnings: 2
