###############################################################################
#                                                                             #
# IAR C/C++ Compiler V1.30.1.50036 for STM8             12/Mar/2014  19:56:51 #
# Copyright 2010-2011 IAR Systems AB.                                         #
#                                                                             #
#    Source file  =  F:\Skydrive\Final Design\Servo Motor                     #
#                    STM8L\Libraries\STM8L15x_StdPeriph_Driver\src\stm8l15x_t #
#                    im3.c                                                    #
#    Command line =  "F:\Skydrive\Final Design\Servo Motor                    #
#                    STM8L\Libraries\STM8L15x_StdPeriph_Driver\src\stm8l15x_t #
#                    im3.c" -e -Ol --no_cse --no_unroll --no_inline           #
#                    --no_code_motion --no_tbaa --no_cross_call --debug       #
#                    --code_model small --data_model medium -o                #
#                    "F:\Skydrive\Final Design\Servo Motor STM8L\Debug\Obj\"  #
#                    --dlib_config "D:\IAR Systems\Embedded Workbench         #
#                    6.0\stm8\LIB\dlstm8smn.h" -D STM8L15X_MD -lCN            #
#                    "F:\Skydrive\Final Design\Servo Motor                    #
#                    STM8L\Debug\List\" --diag_suppress Pe177,Pe550 -I        #
#                    "F:\Skydrive\Final Design\Servo Motor                    #
#                    STM8L\Project\Discover\inc\" -I "F:\Skydrive\Final       #
#                    Design\Servo Motor STM8L\Libraries\STM8L15x_StdPeriph_Dr #
#                    iver\inc\" --vregs 16                                    #
#    List file    =  F:\Skydrive\Final Design\Servo Motor                     #
#                    STM8L\Debug\List\stm8l15x_tim3.lst                       #
#    Object file  =  F:\Skydrive\Final Design\Servo Motor                     #
#                    STM8L\Debug\Obj\stm8l15x_tim3.o                          #
#                                                                             #
#                                                                             #
###############################################################################

F:\Skydrive\Final Design\Servo Motor STM8L\Libraries\STM8L15x_StdPeriph_Driver\src\stm8l15x_tim3.c
      1          /**
      2            ******************************************************************************
      3            * @file    stm8l15x_tim3.c
      4            * @author  MCD Application Team
      5            * @version V1.4.0
      6            * @date    09/24/2010
      7            * @brief   This file provides all the TIM3 firmware functions.
      8            ******************************************************************************
      9            * @copy
     10            *
     11            * THE PRESENT FIRMWARE WHICH IS FOR GUIDANCE ONLY AIMS AT PROVIDING CUSTOMERS
     12            * WITH CODING INFORMATION REGARDING THEIR PRODUCTS IN ORDER FOR THEM TO SAVE
     13            * TIME. AS A RESULT, STMICROELECTRONICS SHALL NOT BE HELD LIABLE FOR ANY
     14            * DIRECT, INDIRECT OR CONSEQUENTIAL DAMAGES WITH RESPECT TO ANY CLAIMS ARISING
     15            * FROM THE CONTENT OF SUCH FIRMWARE AND/OR THE USE MADE BY CUSTOMERS OF THE
     16            * CODING INFORMATION CONTAINED HEREIN IN CONNECTION WITH THEIR PRODUCTS.
     17            *
     18            * <h2><center>&copy; COPYRIGHT 2010 STMicroelectronics</center></h2>
     19            */
     20          
     21          /* Includes ------------------------------------------------------------------*/
     22          #include "stm8l15x_tim3.h"
     23          
     24          /** @addtogroup STM8L15x_StdPeriph_Driver
     25            * @{
     26            */
     27          
     28          /* Private typedef -----------------------------------------------------------*/
     29          /* Private define ------------------------------------------------------------*/
     30          /* Private macro -------------------------------------------------------------*/
     31          /* Private variables ---------------------------------------------------------*/
     32          /* Private function prototypes -----------------------------------------------*/
     33          static void TI1_Config(TIM3_ICPolarity_TypeDef TIM3_ICPolarity,
     34                                 TIM3_ICSelection_TypeDef TIM3_ICSelection,
     35                                 uint8_t TIM3_ICFilter);
     36          static void TI2_Config(TIM3_ICPolarity_TypeDef TIM3_ICPolarity,
     37                                 TIM3_ICSelection_TypeDef TIM3_ICSelection,
     38                                 uint8_t TIM3_ICFilter);
     39          
     40          
     41          /**
     42            * @addtogroup TIM3_Public_Functions
     43            * @{
     44            */
     45          
     46          /**
     47            * @brief  Deinitializes the TIM3 peripheral registers to their default reset values.
     48            * @param  None
     49            * @retval None
     50            */

   \                                 In section .near_func.text, align 1
     51          void TIM3_DeInit(void)
     52          {
     53            TIM3->CR1 = TIM_CR1_RESET_VALUE;
   \                     TIM3_DeInit:
   \   000000 35005280              MOV       L:0x5280, #0x0
     54            TIM3->CR2 = TIM_CR2_RESET_VALUE;
   \   000004 35005281              MOV       L:0x5281, #0x0
     55            TIM3->SMCR = TIM_SMCR_RESET_VALUE;
   \   000008 35005282              MOV       L:0x5282, #0x0
     56            TIM3->ETR = TIM_ETR_RESET_VALUE;
   \   00000C 35005283              MOV       L:0x5283, #0x0
     57            TIM3->IER = TIM_IER_RESET_VALUE;
   \   000010 35005285              MOV       L:0x5285, #0x0
     58            TIM3->SR2 = TIM_SR2_RESET_VALUE;
   \   000014 35005287              MOV       L:0x5287, #0x0
     59          
     60            /* Disable channels */
     61            TIM3->CCER1 = TIM_CCER1_RESET_VALUE;
   \   000018 3500528B              MOV       L:0x528b, #0x0
     62            /* Configure channels as inputs: it is necessary if lock level is equal to 2 or 3 */
     63            TIM3->CCMR1 = 0x01;/* TIM3_ICxSource_TIxFPx */
   \   00001C 35015289              MOV       L:0x5289, #0x1
     64            TIM3->CCMR2 = 0x01;/* TIM3_ICxSource_TIxFPx */
   \   000020 3501528A              MOV       L:0x528a, #0x1
     65          
     66            /* Then reset channel registers: it also works if lock level is equal to 2 or 3 */
     67            TIM3->CCER1 = TIM_CCER1_RESET_VALUE;
   \   000024 3500528B              MOV       L:0x528b, #0x0
     68            TIM3->CCMR1 = TIM_CCMR1_RESET_VALUE;
   \   000028 35005289              MOV       L:0x5289, #0x0
     69            TIM3->CCMR2 = TIM_CCMR2_RESET_VALUE;
   \   00002C 3500528A              MOV       L:0x528a, #0x0
     70          
     71            TIM3->CNTRH = TIM_CNTRH_RESET_VALUE;
   \   000030 3500528C              MOV       L:0x528c, #0x0
     72            TIM3->CNTRL = TIM_CNTRL_RESET_VALUE;
   \   000034 3500528D              MOV       L:0x528d, #0x0
     73          
     74            TIM3->PSCR = TIM_PSCR_RESET_VALUE;
   \   000038 3500528E              MOV       L:0x528e, #0x0
     75          
     76            TIM3->ARRH = TIM_ARRH_RESET_VALUE;
   \   00003C 35FF528F              MOV       L:0x528f, #0xff
     77            TIM3->ARRL = TIM_ARRL_RESET_VALUE;
   \   000040 35FF5290              MOV       L:0x5290, #0xff
     78          
     79            TIM3->CCR1H = TIM_CCR1H_RESET_VALUE;
   \   000044 35005291              MOV       L:0x5291, #0x0
     80            TIM3->CCR1L = TIM_CCR1L_RESET_VALUE;
   \   000048 35005292              MOV       L:0x5292, #0x0
     81            TIM3->CCR2H = TIM_CCR2H_RESET_VALUE;
   \   00004C 35005293              MOV       L:0x5293, #0x0
     82            TIM3->CCR2L = TIM_CCR2L_RESET_VALUE;
   \   000050 35005294              MOV       L:0x5294, #0x0
     83          
     84          
     85            TIM3->OISR = TIM_OISR_RESET_VALUE;
   \   000054 35005296              MOV       L:0x5296, #0x0
     86            TIM3->EGR = 0x01;/* TIM_EGR_UG */
   \   000058 35015288              MOV       L:0x5288, #0x1
     87            TIM3->BKR = TIM_BKR_RESET_VALUE;
   \   00005C 35005295              MOV       L:0x5295, #0x0
     88            TIM3->SR1 = TIM_SR1_RESET_VALUE;
   \   000060 35005286              MOV       L:0x5286, #0x0
     89          }
   \   000064 81                    RET
     90          
     91          /**
     92            * @brief  Initializes the TIM3 Time Base Unit according to the specified parameters.
     93            * @param  TIM3_Prescaler : This parameter can be any member of the @Ref TIM3_Prescaler_TypeDef enumeration.
     94            * @param  TIM3_CounterMode : This parameter can be any member of the @Ref TIM3_CounterMode_TypeDef enumeration.
     95            * @param  TIM3_Period : This parameter must be a value between 0x0000 and 0xFFFF.
     96            * @retval None
     97            */
     98          

   \                                 In section .near_func.text, align 1
     99          void TIM3_TimeBaseInit(TIM3_Prescaler_TypeDef TIM3_Prescaler,
    100                                 TIM3_CounterMode_TypeDef TIM3_CounterMode,
    101                                 uint16_t TIM3_Period)
    102          {
   \                     TIM3_TimeBaseInit:
   \   000000 B700                  LD        S:?b1, A
   \   000002 9093                  LDW       Y, X
    103          
    104            assert_param(IS_TIM3_PRESCALER(TIM3_Prescaler));
    105            assert_param(IS_TIM3_COUNTER_MODE(TIM3_CounterMode));
    106          
    107          
    108          
    109            /* Set the Autoreload value */
    110            TIM3->ARRH = (uint8_t)(TIM3_Period >> 8) ;
   \   000004 93                    LDW       X, Y
   \   000005 4F                    CLR       A
   \   000006 01                    RRWA      X, A
   \   000007 9F                    LD        A, XL
   \   000008 C7528F                LD        L:0x528f, A
    111            TIM3->ARRL = (uint8_t)(TIM3_Period);
   \   00000B 909F                  LD        A, YL
   \   00000D C75290                LD        L:0x5290, A
    112          
    113            /* Set the Prescaler value */
    114            TIM3->PSCR = (uint8_t)(TIM3_Prescaler);
   \   000010 B600                  LD        A, S:?b1
   \   000012 C7528E                LD        L:0x528e, A
    115          
    116            /* Select the Counter Mode */
    117            TIM3->CR1 &= (uint8_t)((uint8_t)(~TIM_CR1_CMS)) & ((uint8_t)(~TIM_CR1_DIR));
   \   000015 C65280                LD        A, L:0x5280
   \   000018 A48F                  AND       A, #0x8f
   \   00001A C75280                LD        L:0x5280, A
    118            TIM3->CR1 |= (uint8_t)(TIM3_CounterMode);
   \   00001D B600                  LD        A, S:?b0
   \   00001F CA5280                OR        A, L:0x5280
   \   000022 C75280                LD        L:0x5280, A
    119          
    120            /* Generate an update event to reload the Prescaler value immediately */
    121            TIM3->EGR = TIM3_EventSource_Update;
   \   000025 35015288              MOV       L:0x5288, #0x1
    122          }
   \   000029 81                    RET
    123          
    124          /**
    125            * @brief Initializes the TIM3 Channel1 according to the specified parameters.
    126            * @param  TIM3_OCMode : This parameter can be any member of the @Ref TIM3_OCMode_TypeDef enumeration.
    127            * @param  TIM3_OutputState : This parameter can be any member of the @Ref TIM3_OutputState_TypeDef enumeration.
    128            * @param  TIM3_Pulse : This parameter must be a value between 0x0000 and 0xFFFF.
    129            * @param  TIM3_OCPolarity : This parameter can be any member of the @Ref TIM3_OCPolarity_TypeDef enumeration.
    130            * @param  TIM3_OCIdleState : This parameter can be any member of the @Ref TIM3_OCIdleState_TypeDef  enumeration.
    131            * @retval None
    132            */

   \                                 In section .near_func.text, align 1
    133          void TIM3_OC1Init(TIM3_OCMode_TypeDef TIM3_OCMode,
    134                            TIM3_OutputState_TypeDef TIM3_OutputState,
    135                            uint16_t TIM3_Pulse,
    136                            TIM3_OCPolarity_TypeDef TIM3_OCPolarity,
    137                            TIM3_OCIdleState_TypeDef TIM3_OCIdleState)
    138          {
   \                     TIM3_OC1Init:
   \   000000 B700                  LD        S:?b3, A
   \   000002 9093                  LDW       Y, X
    139            uint8_t tmpccmr1 = 0;
   \   000004 3F00                  CLR       S:?b4
    140          
    141            /* Check the parameters */
    142            assert_param(IS_TIM3_OC_MODE(TIM3_OCMode));
    143            assert_param(IS_TIM3_OUTPUT_STATE(TIM3_OutputState));
    144            assert_param(IS_TIM3_OC_POLARITY(TIM3_OCPolarity));
    145            assert_param(IS_TIM3_OCIDLE_STATE(TIM3_OCIdleState));
    146          
    147            tmpccmr1 = TIM3->CCMR1;
   \   000006 C65289                LD        A, L:0x5289
   \   000009 B700                  LD        S:?b4, A
    148          
    149            /* Disable the Channel 1: Reset the CCE Bit */
    150            TIM3->CCER1 &= (uint8_t)(~TIM_CCER1_CC1E);
   \   00000B 7211528B              BRES      L:0x528b, #0x0
    151            /* Reset the Output Compare Bits */
    152            tmpccmr1 &= (uint8_t)(~TIM_CCMR_OCM);
   \   00000F B600                  LD        A, S:?b4
   \   000011 A48F                  AND       A, #0x8f
   \   000013 B700                  LD        S:?b4, A
    153          
    154            /* Set the Ouput Compare Mode */
    155            tmpccmr1 |= (uint8_t)TIM3_OCMode;
   \   000015 B600                  LD        A, S:?b3
   \   000017 BA00                  OR        A, S:?b4
   \   000019 B700                  LD        S:?b4, A
    156          
    157            TIM3->CCMR1 = tmpccmr1;
   \   00001B B600                  LD        A, S:?b4
   \   00001D C75289                LD        L:0x5289, A
    158          
    159            /* Set the Output State */
    160            if (TIM3_OutputState == TIM3_OutputState_Enable)
   \   000020 B600                  LD        A, S:?b0
   \   000022 A101                  CP        A, #0x1
   \   000024 2606                  JRNE      L:??TIM3_OC1Init_0
    161            {
    162              TIM3->CCER1 |= TIM_CCER1_CC1E;
   \   000026 7210528B              BSET      L:0x528b, #0x0
   \   00002A 2004                  JRA       L:??TIM3_OC1Init_1
    163            }
    164            else
    165            {
    166              TIM3->CCER1 &= (uint8_t)(~TIM_CCER1_CC1E);
   \                     ??TIM3_OC1Init_0:
   \   00002C 7211528B              BRES      L:0x528b, #0x0
    167            }
    168          
    169            /* Set the Output Polarity */
    170            if (TIM3_OCPolarity == TIM3_OCPolarity_Low)
   \                     ??TIM3_OC1Init_1:
   \   000030 B600                  LD        A, S:?b1
   \   000032 A101                  CP        A, #0x1
   \   000034 2606                  JRNE      L:??TIM3_OC1Init_2
    171            {
    172              TIM3->CCER1 |= TIM_CCER1_CC1P;
   \   000036 7212528B              BSET      L:0x528b, #0x1
   \   00003A 2004                  JRA       L:??TIM3_OC1Init_3
    173            }
    174            else
    175            {
    176              TIM3->CCER1 &= (uint8_t)(~TIM_CCER1_CC1P);
   \                     ??TIM3_OC1Init_2:
   \   00003C 7213528B              BRES      L:0x528b, #0x1
    177            }
    178          
    179            /* Set the Output Idle state */
    180            if (TIM3_OCIdleState == TIM3_OCIdleState_Set)
   \                     ??TIM3_OC1Init_3:
   \   000040 B600                  LD        A, S:?b2
   \   000042 A101                  CP        A, #0x1
   \   000044 2606                  JRNE      L:??TIM3_OC1Init_4
    181            {
    182              TIM3->OISR |= TIM_OISR_OIS1;
   \   000046 72105296              BSET      L:0x5296, #0x0
   \   00004A 2004                  JRA       L:??TIM3_OC1Init_5
    183            }
    184            else
    185            {
    186              TIM3->OISR &= (uint8_t)(~TIM_OISR_OIS1);
   \                     ??TIM3_OC1Init_4:
   \   00004C 72115296              BRES      L:0x5296, #0x0
    187            }
    188          
    189            /* Set the Pulse value */
    190            TIM3->CCR1H = (uint8_t)(TIM3_Pulse >> 8);
   \                     ??TIM3_OC1Init_5:
   \   000050 93                    LDW       X, Y
   \   000051 4F                    CLR       A
   \   000052 01                    RRWA      X, A
   \   000053 9F                    LD        A, XL
   \   000054 C75291                LD        L:0x5291, A
    191            TIM3->CCR1L = (uint8_t)(TIM3_Pulse);
   \   000057 909F                  LD        A, YL
   \   000059 C75292                LD        L:0x5292, A
    192          }
   \   00005C 81                    RET
    193          
    194          /**
    195            * @brief  Initializes the TIM3 Channel2 according to the specified parameters.
    196            * @param  TIM3_OCMode : This parameter can be any member of the @Ref TIM3_OCMode_TypeDef enumeration.
    197            * @param  TIM3_OutputState : This parameter can be any member of the @Ref TIM3_OutputState_TypeDef enumeration.
    198            * @param  TIM3_Pulse : This parameter must be a value between 0x0000 and 0xFFFF.
    199            * @param  TIM3_OCPolarity : This parameter can be any member of the @Ref TIM3_OCPolarity_TypeDef enumeration.
    200            * @param  TIM3_OCIdleState : This parameter can be any member of the @Ref TIM3_OCIdleState_TypeDef  enumeration.
    201            * @retval None
    202            */

   \                                 In section .near_func.text, align 1
    203          void TIM3_OC2Init(TIM3_OCMode_TypeDef TIM3_OCMode,
    204                            TIM3_OutputState_TypeDef TIM3_OutputState,
    205                            uint16_t TIM3_Pulse,
    206                            TIM3_OCPolarity_TypeDef TIM3_OCPolarity,
    207                            TIM3_OCIdleState_TypeDef TIM3_OCIdleState)
    208          {
   \                     TIM3_OC2Init:
   \   000000 B700                  LD        S:?b3, A
   \   000002 9093                  LDW       Y, X
    209            uint8_t tmpccmr2 = 0;
   \   000004 3F00                  CLR       S:?b4
    210          
    211            /* Check the parameters */
    212            assert_param(IS_TIM3_OC_MODE(TIM3_OCMode));
    213            assert_param(IS_TIM3_OUTPUT_STATE(TIM3_OutputState));
    214            assert_param(IS_TIM3_OC_POLARITY(TIM3_OCPolarity));
    215            assert_param(IS_TIM3_OCIDLE_STATE(TIM3_OCIdleState));
    216          
    217            tmpccmr2 = TIM3->CCMR2;
   \   000006 C6528A                LD        A, L:0x528a
   \   000009 B700                  LD        S:?b4, A
    218          
    219            /* Disable the Channel 2: Reset the CCE Bit */
    220            TIM3->CCER1 &= (uint8_t)(~TIM_CCER1_CC2E);
   \   00000B 7219528B              BRES      L:0x528b, #0x4
    221          
    222            /* Reset the Output Compare Bits */
    223            tmpccmr2 &= (uint8_t)(~TIM_CCMR_OCM);
   \   00000F B600                  LD        A, S:?b4
   \   000011 A48F                  AND       A, #0x8f
   \   000013 B700                  LD        S:?b4, A
    224          
    225            /* Set the Ouput Compare Mode */
    226            tmpccmr2 |= (uint8_t)TIM3_OCMode;
   \   000015 B600                  LD        A, S:?b3
   \   000017 BA00                  OR        A, S:?b4
   \   000019 B700                  LD        S:?b4, A
    227          
    228            TIM3->CCMR2 = tmpccmr2;
   \   00001B B600                  LD        A, S:?b4
   \   00001D C7528A                LD        L:0x528a, A
    229          
    230            /* Set the Output State */
    231            if (TIM3_OutputState == TIM3_OutputState_Enable)
   \   000020 B600                  LD        A, S:?b0
   \   000022 A101                  CP        A, #0x1
   \   000024 2606                  JRNE      L:??TIM3_OC2Init_0
    232            {
    233              TIM3->CCER1 |= TIM_CCER1_CC2E;
   \   000026 7218528B              BSET      L:0x528b, #0x4
   \   00002A 2004                  JRA       L:??TIM3_OC2Init_1
    234            }
    235            else
    236            {
    237              TIM3->CCER1 &= (uint8_t)(~TIM_CCER1_CC2E);
   \                     ??TIM3_OC2Init_0:
   \   00002C 7219528B              BRES      L:0x528b, #0x4
    238            }
    239          
    240            /* Set the Output Polarity */
    241            if (TIM3_OCPolarity == TIM3_OCPolarity_Low)
   \                     ??TIM3_OC2Init_1:
   \   000030 B600                  LD        A, S:?b1
   \   000032 A101                  CP        A, #0x1
   \   000034 2606                  JRNE      L:??TIM3_OC2Init_2
    242            {
    243              TIM3->CCER1 |= TIM_CCER1_CC2P;
   \   000036 721A528B              BSET      L:0x528b, #0x5
   \   00003A 2004                  JRA       L:??TIM3_OC2Init_3
    244            }
    245            else
    246            {
    247              TIM3->CCER1 &= (uint8_t)(~TIM_CCER1_CC2P);
   \                     ??TIM3_OC2Init_2:
   \   00003C 721B528B              BRES      L:0x528b, #0x5
    248            }
    249          
    250          
    251            /* Set the Output Idle state */
    252            if (TIM3_OCIdleState == TIM3_OCIdleState_Set)
   \                     ??TIM3_OC2Init_3:
   \   000040 B600                  LD        A, S:?b2
   \   000042 A101                  CP        A, #0x1
   \   000044 2606                  JRNE      L:??TIM3_OC2Init_4
    253            {
    254              TIM3->OISR |= TIM_OISR_OIS2;
   \   000046 72145296              BSET      L:0x5296, #0x2
   \   00004A 2004                  JRA       L:??TIM3_OC2Init_5
    255            }
    256            else
    257            {
    258              TIM3->OISR &= (uint8_t)(~TIM_OISR_OIS2);
   \                     ??TIM3_OC2Init_4:
   \   00004C 72155296              BRES      L:0x5296, #0x2
    259            }
    260          
    261            /* Set the Pulse value */
    262            TIM3->CCR2H = (uint8_t)(TIM3_Pulse >> 8);
   \                     ??TIM3_OC2Init_5:
   \   000050 93                    LDW       X, Y
   \   000051 4F                    CLR       A
   \   000052 01                    RRWA      X, A
   \   000053 9F                    LD        A, XL
   \   000054 C75293                LD        L:0x5293, A
    263            TIM3->CCR2L = (uint8_t)(TIM3_Pulse);
   \   000057 909F                  LD        A, YL
   \   000059 C75294                LD        L:0x5294, A
    264          }
   \   00005C 81                    RET
    265          
    266          /**
    267            * @brief  Configures the Break feature, dead time, Lock level, the OSSI,
    268            * and the AOE(automatic output enable).
    269            * @param  TIM3_OSSIState : Off-State Selection for Idle mode states.
    270            *   This parameter can be any member of the @Ref TIM3_OSSIState_TypeDef enumeration.
    271            * @param  TIM3_LockLevel : Lock level.
    272            *   This parameter can be any member of the @Ref TIM3_LockLevel_TypeDef enumeration.
    273            * @param  TIM3_BreakState : Break Input enable/disable .
    274            *   This parameter can be any member of the @Ref TIM3_BreakState_TypeDef enumeration.
    275            * @param  TIM3_BreakPolarity : Break Polarity.
    276            *   This parameter can be any member of the @Ref TIM3_BreakPolarity_TypeDef enumeration.
    277            * @param  TIM3_AutomaticOutput : TIM3 AOE Bit Set/Reset .
    278            *   This parameter can be anymember of the @Ref TIM3_AutomaticOutput_TypeDef enumeration.
    279            * @retval None
    280            */

   \                                 In section .near_func.text, align 1
    281          void TIM3_BKRConfig(TIM3_OSSIState_TypeDef TIM3_OSSIState,
    282                              TIM3_LockLevel_TypeDef TIM3_LockLevel,
    283                              TIM3_BreakState_TypeDef TIM3_BreakState,
    284                              TIM3_BreakPolarity_TypeDef TIM3_BreakPolarity,
    285                              TIM3_AutomaticOutput_TypeDef TIM3_AutomaticOutput)
    286          {
   \                     TIM3_BKRConfig:
   \   000000 B700                  LD        S:?b4, A
   \   000002 B600                  LD        A, S:?b2
    287            /* Check the parameters */
    288            assert_param(IS_TIM3_OSSI_STATE(TIM3_OSSIState));
    289            assert_param(IS_TIM3_LOCK_LEVEL(TIM3_LockLevel));
    290            assert_param(IS_TIM3_BREAK_STATE(TIM3_BreakState));
    291            assert_param(IS_TIM3_BREAK_POLARITY(TIM3_BreakPolarity));
    292            assert_param(IS_TIM3_AUTOMATIC_OUTPUT_STATE(TIM3_AutomaticOutput));
    293          
    294          
    295          
    296            /* Set the Lock level, the Break enable Bit and the Ploarity, the OSSI State,
    297            the dead time value and the Automatic Output Enable Bit */
    298          
    299            TIM3->BKR = (uint8_t)((uint8_t)((uint8_t)((uint8_t)((uint8_t)TIM3_OSSIState | (uint8_t)TIM3_LockLevel) | \
    300                                            (uint8_t)((uint8_t)TIM3_BreakState | (uint8_t)TIM3_BreakPolarity)) | \
    301                                            TIM3_AutomaticOutput));
   \   000004 BA00                  OR        A, S:?b1
   \   000006 88                    PUSH      A
   \   000007 B600                  LD        A, S:?b0
   \   000009 BA00                  OR        A, S:?b4
   \   00000B B700                  LD        S:?b0, A
   \   00000D 84                    POP       A
   \   00000E BA00                  OR        A, S:?b0
   \   000010 BA00                  OR        A, S:?b3
   \   000012 C75295                LD        L:0x5295, A
    302          }
   \   000015 81                    RET
    303          
    304          /**
    305            * @brief  Initializes the TIM3 peripheral according to the specified parameters.
    306            * @param  TIM3_Channel : This parameter can be any member of the @Ref TIM3_Channel_TypeDef enumeration.
    307            * @param  TIM3_ICPolarity : This parameter can be any member of the @Ref TIM3_ICPolarity_TypeDef enumeration.
    308            * @param  TIM3_ICSelection : This parameter can be any member of the @Ref TIM3_ICSelection_TypeDef enumeration.
    309            * @param  TIM3_ICPrescaler : This parameter can be any member of the @Ref TIM3_ICPSC_TypeDef enumeration.
    310            * @param  TIM3_ICFilter : This parameter must be a value between 0x00 and 0x0F.
    311            * @retval None
    312            */

   \                                 In section .near_func.text, align 1
    313          void TIM3_ICInit(TIM3_Channel_TypeDef TIM3_Channel,
    314                           TIM3_ICPolarity_TypeDef TIM3_ICPolarity,
    315                           TIM3_ICSelection_TypeDef TIM3_ICSelection,
    316                           TIM3_ICPSC_TypeDef TIM3_ICPrescaler,
    317                           uint8_t TIM3_ICFilter)
    318          {
   \                     TIM3_ICInit:
   \   000000 450000                MOV       S:?b4, S:?b0
   \   000003 450000                MOV       S:?b0, S:?b1
   \   000006 450000                MOV       S:?b5, S:?b2
   \   000009 450000                MOV       S:?b1, S:?b3
    319            /* Check the parameters */
    320            assert_param(IS_TIM3_CHANNEL(TIM3_Channel));
    321          
    322            if (TIM3_Channel == TIM3_Channel_1)
   \   00000C 4D                    TNZ       A
   \   00000D 260A                  JRNE      L:??TIM3_ICInit_0
    323            {
    324              /* TI1 Configuration */
    325              TI1_Config(TIM3_ICPolarity, TIM3_ICSelection, TIM3_ICFilter);
   \   00000F B600                  LD        A, S:?b4
   \   000011 CD0000                CALL      L:TI1_Config
    326          
    327              /* Set the Input Capture Prescaler value */
    328              TIM3_SetIC1Prescaler(TIM3_ICPrescaler);
   \   000014 B600                  LD        A, S:?b5
   \   000016 CC0000                JP        L:TIM3_SetIC1Prescaler
    329            }
    330            else /* if (TIM3_Channel == TIM3_Channel_2) */
    331            {
    332              /* TI2 Configuration */
    333              TI2_Config(TIM3_ICPolarity, TIM3_ICSelection, TIM3_ICFilter);
   \                     ??TIM3_ICInit_0:
   \   000019 B600                  LD        A, S:?b4
   \   00001B CD0000                CALL      L:TI2_Config
    334              /* Set the Input Capture Prescaler value */
    335              TIM3_SetIC2Prescaler(TIM3_ICPrescaler);
   \   00001E B600                  LD        A, S:?b5
   \   000020 CC0000                JP        L:TIM3_SetIC2Prescaler
    336            }
    337          }
    338          
    339          /**
    340            * @brief  Configures the TIM3 peripheral in PWM Input Mode according to the
    341            * specified parameters.
    342            * @param  TIM3_Channel : This parameter can be any member of the @Ref TIM3_Channel_TypeDef enumeration.
    343            * @param  TIM3_ICPolarity : This parameter can be any member of the @Ref TIM3_ICPolarity_TypeDef enumeration.
    344            * @param  TIM3_ICSelection : This parameter can be any member of the @Ref TIM3_ICSelection_TypeDef enumeration.
    345            * @param  TIM3_ICPrescaler : This parameter can be any member of the @Ref TIM3_ICPSC_TypeDef enumeration.
    346            * @param  TIM3_ICFilter : This parameter must be a value between 0x00 and 0x0F.
    347            * @retval None
    348            */

   \                                 In section .near_func.text, align 1, keep-with-next
    349          void TIM3_PWMIConfig(TIM3_Channel_TypeDef TIM3_Channel,
    350                               TIM3_ICPolarity_TypeDef TIM3_ICPolarity,
    351                               TIM3_ICSelection_TypeDef TIM3_ICSelection,
    352                               TIM3_ICPSC_TypeDef TIM3_ICPrescaler,
    353                               uint8_t TIM3_ICFilter)
    354          {
   \                     TIM3_PWMIConfig:
   \   000000 CD0000                CALL      L:?push_w4
   \   000003 B700                  LD        S:?b6, A
   \   000005 450000                MOV       S:?b7, S:?b0
   \   000008 B600                  LD        A, S:?b1
   \   00000A 450000                MOV       S:?b8, S:?b2
   \   00000D 450000                MOV       S:?b9, S:?b3
    355            uint8_t icpolarity = TIM3_ICPolarity_Rising;
   \   000010 3F00                  CLR       S:?b5
    356            uint8_t icselection = TIM3_ICSelection_DirectTI;
   \   000012 35010000              MOV       S:?b4, #0x1
    357          
    358            /* Check the parameters */
    359            assert_param(IS_TIM3_CHANNEL(TIM3_Channel));
    360          
    361            /* Select the Opposite Input Polarity */
    362            if (TIM3_ICPolarity == TIM3_ICPolarity_Rising)
   \   000016 3D00                  TNZ       S:?b7
   \   000018 2606                  JRNE      L:??TIM3_PWMIConfig_0
    363            {
    364              icpolarity = TIM3_ICPolarity_Falling;
   \   00001A 35010000              MOV       S:?b5, #0x1
   \   00001E 2002                  JRA       L:??TIM3_PWMIConfig_1
    365            }
    366            else
    367            {
    368              icpolarity = TIM3_ICPolarity_Rising;
   \                     ??TIM3_PWMIConfig_0:
   \   000020 3F00                  CLR       S:?b5
    369            }
    370          
    371            /* Select the Opposite Input */
    372            if (TIM3_ICSelection == TIM3_ICSelection_DirectTI)
   \                     ??TIM3_PWMIConfig_1:
   \   000022 A101                  CP        A, #0x1
   \   000024 2606                  JRNE      L:??TIM3_PWMIConfig_2
    373            {
    374              icselection = TIM3_ICSelection_IndirectTI;
   \   000026 35020000              MOV       S:?b4, #0x2
   \   00002A 2004                  JRA       L:??TIM3_PWMIConfig_3
    375            }
    376            else
    377            {
    378              icselection = TIM3_ICSelection_DirectTI;
   \                     ??TIM3_PWMIConfig_2:
   \   00002C 35010000              MOV       S:?b4, #0x1
    379            }
    380          
    381            if (TIM3_Channel == TIM3_Channel_1)
   \                     ??TIM3_PWMIConfig_3:
   \   000030 3D00                  TNZ       S:?b6
   \   000032 2622                  JRNE      L:??TIM3_PWMIConfig_4
    382            {
    383              /* TI1 Configuration */
    384              TI1_Config(TIM3_ICPolarity, TIM3_ICSelection, TIM3_ICFilter);
   \   000034 450000                MOV       S:?b1, S:?b9
   \   000037 B700                  LD        S:?b0, A
   \   000039 B600                  LD        A, S:?b7
   \   00003B CD0000                CALL      L:TI1_Config
    385          
    386              /* Set the Input Capture Prescaler value */
    387              TIM3_SetIC1Prescaler(TIM3_ICPrescaler);
   \   00003E B600                  LD        A, S:?b8
   \   000040 CD0000                CALL      L:TIM3_SetIC1Prescaler
    388          
    389              /* TI2 Configuration */
    390              TI2_Config((TIM3_ICPolarity_TypeDef)icpolarity, (TIM3_ICSelection_TypeDef)icselection, TIM3_ICFilter);
   \   000043 450000                MOV       S:?b1, S:?b9
   \   000046 450000                MOV       S:?b0, S:?b4
   \   000049 B600                  LD        A, S:?b5
   \   00004B CD0000                CALL      L:TI2_Config
    391          
    392              /* Set the Input Capture Prescaler value */
    393              TIM3_SetIC2Prescaler(TIM3_ICPrescaler);
   \   00004E B600                  LD        A, S:?b8
   \   000050 CD0000                CALL      L:TIM3_SetIC2Prescaler
   \   000053 CC0000                JP        L:?epilogue_w4
    394            }
    395            else
    396            {
    397              /* TI2 Configuration */
    398              TI2_Config(TIM3_ICPolarity, TIM3_ICSelection, TIM3_ICFilter);
   \                     ??TIM3_PWMIConfig_4:
   \   000056 450000                MOV       S:?b1, S:?b9
   \   000059 B700                  LD        S:?b0, A
   \   00005B B600                  LD        A, S:?b7
   \   00005D CD0000                CALL      L:TI2_Config
    399          
    400              /* Set the Input Capture Prescaler value */
    401              TIM3_SetIC2Prescaler(TIM3_ICPrescaler);
   \   000060 B600                  LD        A, S:?b8
   \   000062 CD0000                CALL      L:TIM3_SetIC2Prescaler
    402          
    403              /* TI1 Configuration */
    404              TI1_Config((TIM3_ICPolarity_TypeDef)icpolarity, (TIM3_ICSelection_TypeDef)icselection, TIM3_ICFilter);
   \   000065 450000                MOV       S:?b1, S:?b9
   \   000068 450000                MOV       S:?b0, S:?b4
   \   00006B B600                  LD        A, S:?b5
   \   00006D CD0000                CALL      L:TI1_Config
    405          
    406              /* Set the Input Capture Prescaler value */
    407              TIM3_SetIC1Prescaler(TIM3_ICPrescaler);
   \   000070 B600                  LD        A, S:?b8
   \   000072 CD0000                CALL      L:TIM3_SetIC1Prescaler
    408            }
    409          }
   \   000075 CC0000                JP        L:?epilogue_w4
    410          
    411          /**
    412            * @brief  Enables or disables the TIM3 peripheral.
    413            * @param NewState : The new state of the TIM3 peripheral.
    414            *   This parameter can be any of the @ref FunctionalState enumeration.
    415            * @retval None
    416            */

   \                                 In section .near_func.text, align 1, keep-with-next
    417          void TIM3_Cmd(FunctionalState NewState)
    418          {
    419            /* Check the parameters */
    420            assert_param(IS_FUNCTIONAL_STATE(NewState));
    421          
    422            /* set or Reset the CEN Bit */
    423            if (NewState != DISABLE)
   \                     TIM3_Cmd:
   \   000000 4D                    TNZ       A
   \   000001 2705                  JREQ      L:??TIM3_Cmd_0
    424            {
    425              TIM3->CR1 |= TIM_CR1_CEN;
   \   000003 72105280              BSET      L:0x5280, #0x0
   \   000007 81                    RET
    426            }
    427            else
    428            {
    429              TIM3->CR1 &= (uint8_t)(~TIM_CR1_CEN);
   \                     ??TIM3_Cmd_0:
   \   000008 72115280              BRES      L:0x5280, #0x0
    430            }
    431          }
   \   00000C 81                    RET
    432          
    433          /**
    434            * @brief  Enables or disables the TIM3 peripheral Main Outputs.
    435            * @param NewState : The new state of the TIM3 peripheral.
    436            *   This parameter can be any of the @ref FunctionalState enumeration.
    437            * @retval None
    438            */

   \                                 In section .near_func.text, align 1, keep-with-next
    439          void TIM3_CtrlPWMOutputs(FunctionalState NewState)
    440          {
    441            /* Check the parameters */
    442            assert_param(IS_FUNCTIONAL_STATE(NewState));
    443          
    444            /* Set or Reset the MOE Bit */
    445          
    446            if (NewState != DISABLE)
   \                     TIM3_CtrlPWMOutputs:
   \   000000 4D                    TNZ       A
   \   000001 2705                  JREQ      L:??TIM3_CtrlPWMOutputs_0
    447            {
    448              TIM3->BKR |= TIM_BKR_MOE ;
   \   000003 721E5295              BSET      L:0x5295, #0x7
   \   000007 81                    RET
    449            }
    450            else
    451            {
    452              TIM3->BKR &= (uint8_t)(~TIM_BKR_MOE) ;
   \                     ??TIM3_CtrlPWMOutputs_0:
   \   000008 721F5295              BRES      L:0x5295, #0x7
    453            }
    454          }
   \   00000C 81                    RET
    455          /**
    456            * @brief  Enables or disables the specified TIM3 interrupts.
    457            * @param  TIM3_IT : Specifies the TIM3 interrupts sources to be enabled or disabled.
    458            *   This parameter can be any combination of the @ref TIM3_IT_TypeDef enumeration.
    459            * @param NewState : The new state of the TIM3 peripheral.
    460            *   This parameter can be any of the @ref FunctionalState enumeration.
    461            * @retval None
    462            */

   \                                 In section .near_func.text, align 1, keep-with-next
    463          void TIM3_ITConfig(TIM3_IT_TypeDef TIM3_IT, FunctionalState NewState)
    464          {
    465            /* Check the parameters */
    466            assert_param(IS_TIM3_IT(TIM3_IT));
    467            assert_param(IS_FUNCTIONAL_STATE(NewState));
    468          
    469            if (NewState != DISABLE)
   \                     TIM3_ITConfig:
   \   000000 3D00                  TNZ       S:?b0
   \   000002 2707                  JREQ      L:??TIM3_ITConfig_0
    470            {
    471              /* Enable the Interrupt sources */
    472              TIM3->IER |= (uint8_t)TIM3_IT;
   \   000004 CA5285                OR        A, L:0x5285
   \   000007 C75285                LD        L:0x5285, A
   \   00000A 81                    RET
    473            }
    474            else
    475            {
    476              /* Disable the Interrupt sources */
    477              TIM3->IER &= (uint8_t)(~(uint8_t)TIM3_IT);
   \                     ??TIM3_ITConfig_0:
   \   00000B 43                    CPL       A
   \   00000C C45285                AND       A, L:0x5285
   \   00000F C75285                LD        L:0x5285, A
    478            }
    479          }
   \   000012 81                    RET
    480          
    481          /**
    482            * @brief  Enables or disables the TIMx’s DMA Requests.
    483            * @param  TIM3_DMASources: specifies the DMA Request sources.
    484            *   This parameter can be any combination of the @ref TIM3_DMASource_TypeDef enumeration.
    485            * @param NewState: new state of the DMA Request sources. This parameter can be: ENABLE or DISABLE.
    486            * @retval None
    487            */

   \                                 In section .near_func.text, align 1, keep-with-next
    488          void TIM3_DMACmd(TIM3_DMASource_TypeDef TIM3_DMASource, FunctionalState NewState)
    489          {
    490            /* Check the parameters */
    491            assert_param(IS_FUNCTIONAL_STATE(NewState));
    492            assert_param(IS_TIM3_DMA_SOURCE(TIM3_DMASource));
    493          
    494            if (NewState != DISABLE)
   \                     TIM3_DMACmd:
   \   000000 3D00                  TNZ       S:?b0
   \   000002 2707                  JREQ      L:??TIM3_DMACmd_0
    495            {
    496              /* Enable the DMA sources */
    497              TIM3->DER |= TIM3_DMASource;
   \   000004 CA5284                OR        A, L:0x5284
   \   000007 C75284                LD        L:0x5284, A
   \   00000A 81                    RET
    498            }
    499            else
    500            {
    501              /* Disable the DMA sources */
    502              TIM3->DER &= (uint8_t)~TIM3_DMASource;
   \                     ??TIM3_DMACmd_0:
   \   00000B 43                    CPL       A
   \   00000C C45284                AND       A, L:0x5284
   \   00000F C75284                LD        L:0x5284, A
    503            }
    504          }
   \   000012 81                    RET
    505          /**
    506            * @brief  Enables the TIM3 internal Clock.
    507            * @par Parameters:
    508            * None
    509            * @retval None
    510            */

   \                                 In section .near_func.text, align 1, keep-with-next
    511          void TIM3_InternalClockConfig(void)
    512          {
    513            /* Disable slave mode to clock the prescaler directly with the internal clock */
    514            TIM3->SMCR &=  (uint8_t)(~TIM_SMCR_SMS);
   \                     TIM3_InternalClockConfig:
   \   000000 C65282                LD        A, L:0x5282
   \   000003 A4F8                  AND       A, #0xf8
   \   000005 C75282                LD        L:0x5282, A
    515          }
   \   000008 81                    RET
    516          
    517          /**
    518            * @brief  Configures the TIM3 External clock Mode1.
    519            * @param  TIM3_ExtTRGPrescaler : Specifies the external Trigger Prescaler.
    520            *   This parameter can be one of @ref TIM3_ExtTRGPSC_TypeDef enumeration.
    521            * @param  TIM3_ExtTRGPolarity : Specifies the external Trigger Polarity.
    522            *   This parameter can be one of @ref TIM3_ExtTRGPolarity_TypeDef enumeration.
    523            * @param ExtTRGFilter : Specifies the External Trigger Filter.
    524            *   This parameter must be a value between 0x00 and 0x0F
    525            * @retval None
    526            */

   \                                 In section .near_func.text, align 1, keep-with-next
    527          void TIM3_ETRClockMode1Config(TIM3_ExtTRGPSC_TypeDef TIM3_ExtTRGPrescaler,
    528                                        TIM3_ExtTRGPolarity_TypeDef TIM3_ExtTRGPolarity,
    529                                        uint8_t ExtTRGFilter)
    530          {
    531            /* Configure the ETR Clock source */
    532            TIM3_ETRConfig(TIM3_ExtTRGPrescaler, TIM3_ExtTRGPolarity, ExtTRGFilter);
   \                     TIM3_ETRClockMode1Config:
   \   000000 CD0000                CALL      L:TIM3_ETRConfig
    533          
    534            /* Select the External clock mode1 */
    535            TIM3->SMCR &= (uint8_t)(~TIM_SMCR_SMS);
   \   000003 C65282                LD        A, L:0x5282
   \   000006 A4F8                  AND       A, #0xf8
   \   000008 C75282                LD        L:0x5282, A
    536            TIM3->SMCR |= (uint8_t)(TIM3_SlaveMode_External1);
   \   00000B C65282                LD        A, L:0x5282
   \   00000E AA07                  OR        A, #0x7
   \   000010 C75282                LD        L:0x5282, A
    537          
    538            /* Select the Trigger selection : ETRF */
    539            TIM3->SMCR &= (uint8_t)(~TIM_SMCR_TS);
   \   000013 C65282                LD        A, L:0x5282
   \   000016 A48F                  AND       A, #0x8f
   \   000018 C75282                LD        L:0x5282, A
    540            TIM3->SMCR |= (uint8_t)((TIM3_TRGSelection_TypeDef)TIM3_TRGSelection_ETRF);
   \   00001B C65282                LD        A, L:0x5282
   \   00001E AA70                  OR        A, #0x70
   \   000020 C75282                LD        L:0x5282, A
    541          }
   \   000023 81                    RET
    542          
    543          /**
    544            * @brief  Configures the TIM3 External clock Mode2.
    545            * @param  TIM3_ExtTRGPrescaler : Specifies the external Trigger Prescaler.
    546            *   This parameter can be one of the @ref TIM3_ExtTRGPSC_TypeDef enumeration.
    547            * @param  TIM3_ExtTRGPolarity : Specifies the external Trigger Polarity.
    548            *   This parameter can be one of the @ref TIM3_ExtTRGPolarity_TypeDef enumeration.
    549            * @param ExtTRGFilter : Specifies the External Trigger Filter.
    550            *   This parameter must be a value between 0x00 and 0x0F
    551            * @retval None
    552            */

   \                                 In section .near_func.text, align 1, keep-with-next
    553          void TIM3_ETRClockMode2Config(TIM3_ExtTRGPSC_TypeDef TIM3_ExtTRGPrescaler,
    554                                        TIM3_ExtTRGPolarity_TypeDef TIM3_ExtTRGPolarity,
    555                                        uint8_t ExtTRGFilter)
    556          {
    557            /* Configure the ETR Clock source */
    558            TIM3_ETRConfig(TIM3_ExtTRGPrescaler, TIM3_ExtTRGPolarity, ExtTRGFilter);
   \                     TIM3_ETRClockMode2Config:
   \   000000 CD0000                CALL      L:TIM3_ETRConfig
    559          
    560            /* Enable the External clock mode2 */
    561            TIM3->ETR |= TIM_ETR_ECE ;
   \   000003 721C5283              BSET      L:0x5283, #0x6
    562          }
   \   000007 81                    RET
    563          
    564          /**
    565            * @brief  Configures the TIM3 External Trigger.
    566            * @param  TIM3_ExtTRGPrescaler : Specifies the external Trigger Prescaler.
    567            *   This parameter can be one of the @ref TIM3_ExtTRGPSC_TypeDef enumeration.
    568            * @param  TIM3_ExtTRGPolarity : Specifies the external Trigger Polarity.
    569            *   This parameter can be one of the @ref TIM3_ExtTRGPolarity_TypeDef enumeration.
    570            * @param ExtTRGFilter : Specifies the External Trigger Filter.
    571            *   This parameter must be a value between 0x00 and 0x0F
    572            * @retval None
    573            */

   \                                 In section .near_func.text, align 1, keep-with-next
    574          void TIM3_ETRConfig(TIM3_ExtTRGPSC_TypeDef TIM3_ExtTRGPrescaler,
    575                              TIM3_ExtTRGPolarity_TypeDef TIM3_ExtTRGPolarity,
    576                              uint8_t ExtTRGFilter)
    577          {
   \                     TIM3_ETRConfig:
   \   000000 B700                  LD        S:?b2, A
   \   000002 B600                  LD        A, S:?b0
    578            /* Check the parameters */
    579            assert_param(IS_TIM3_EXT_PRESCALER(TIM3_ExtTRGPrescaler));
    580            assert_param(IS_TIM3_EXT_POLARITY(TIM3_ExtTRGPolarity));
    581            assert_param(IS_TIM3_EXT_FILTER(ExtTRGFilter));
    582          
    583            /* Set the Prescaler, the Filter value and the Polarity */
    584            TIM3->ETR |= (uint8_t)((uint8_t)((uint8_t)TIM3_ExtTRGPrescaler | (uint8_t)TIM3_ExtTRGPolarity)
    585                                   | (uint8_t)ExtTRGFilter);
   \   000004 BA00                  OR        A, S:?b2
   \   000006 BA00                  OR        A, S:?b1
   \   000008 CA5283                OR        A, L:0x5283
   \   00000B C75283                LD        L:0x5283, A
    586          }
   \   00000E 81                    RET
    587          
    588          /**
    589            * @brief  Configures the TIM3 Trigger as External Clock.
    590            * @param  TIM3_TIxExternalCLKSource : Specifies Trigger source.
    591            *   This parameter can be one of the @ref TIM3_TIxExternalCLK1Source_TypeDef enumeration.
    592            * @param  TIM3_ICPolarity : Specifies the TIx Polarity.
    593            *   This parameter can be @ref TIM3_ICPolarity_TypeDef enumeration.
    594            * @param ICFilter : Specifies the filter value.
    595            *   This parameter must be a value between 0x00 and 0x0F
    596            * @retval None
    597            */

   \                                 In section .near_func.text, align 1, keep-with-next
    598          void TIM3_TIxExternalClockConfig(TIM3_TIxExternalCLK1Source_TypeDef TIM3_TIxExternalCLKSource,
    599                                           TIM3_ICPolarity_TypeDef TIM3_ICPolarity,
    600                                           uint8_t ICFilter)
    601          {
   \                     TIM3_TIxExternalClockConfig:
   \   000000 B700                  LD        S:?b4, A
   \   000002 450000                MOV       S:?b2, S:?b0
    602            /* Check the parameters */
    603            assert_param(IS_TIM3_TIXCLK_SOURCE(TIM3_TIxExternalCLKSource));
    604            assert_param(IS_TIM3_IC_POLARITY(TIM3_ICPolarity));
    605            assert_param(IS_TIM3_IC_FILTER(ICFilter));
    606          
    607            /* Configure the TIM3 Input Clock Source */
    608            if (TIM3_TIxExternalCLKSource == TIM3_TIxExternalCLK1Source_TI2)
   \   000005 B600                  LD        A, S:?b4
   \   000007 A160                  CP        A, #0x60
   \   000009 260B                  JRNE      L:??TIM3_TIxExternalClockConfig_0
    609            {
    610              TI2_Config(TIM3_ICPolarity, TIM3_ICSelection_DirectTI, ICFilter);
   \   00000B 35010000              MOV       S:?b0, #0x1
   \   00000F B600                  LD        A, S:?b2
   \   000011 CD0000                CALL      L:TI2_Config
   \   000014 2009                  JRA       L:??TIM3_TIxExternalClockConfig_1
    611            }
    612            else
    613            {
    614              TI1_Config(TIM3_ICPolarity, TIM3_ICSelection_DirectTI, ICFilter);
   \                     ??TIM3_TIxExternalClockConfig_0:
   \   000016 35010000              MOV       S:?b0, #0x1
   \   00001A B600                  LD        A, S:?b2
   \   00001C CD0000                CALL      L:TI1_Config
    615            }
    616          
    617            /* Select the Trigger source */
    618            TIM3_SelectInputTrigger((TIM3_TRGSelection_TypeDef)TIM3_TIxExternalCLKSource);
   \                     ??TIM3_TIxExternalClockConfig_1:
   \   00001F B600                  LD        A, S:?b4
   \   000021 CD0000                CALL      L:TIM3_SelectInputTrigger
    619          
    620            /* Select the External clock mode1 */
    621            TIM3->SMCR |= (uint8_t)(TIM3_SlaveMode_External1);
   \   000024 C65282                LD        A, L:0x5282
   \   000027 AA07                  OR        A, #0x7
   \   000029 C75282                LD        L:0x5282, A
    622          }
   \   00002C 81                    RET
    623          
    624          /**
    625            * @brief  Selects the TIM3 Input Trigger source.
    626            * @param  TIM3_InputTriggerSource : Specifies Input Trigger source.
    627            *   This parameter can be one of the @ref TIM3_TRGSelection_TypeDef enumeration.
    628            * @retval None
    629            */

   \                                 In section .near_func.text, align 1, keep-with-next
    630          void TIM3_SelectInputTrigger(TIM3_TRGSelection_TypeDef TIM3_InputTriggerSource)
    631          {
   \                     TIM3_SelectInputTrigger:
   \   000000 B700                  LD        S:?b0, A
    632            uint8_t tmpsmcr = 0;
   \   000002 3F00                  CLR       S:?b1
    633          
    634            /* Check the parameters */
    635            assert_param(IS_TIM3_TRIGGER_SELECTION(TIM3_InputTriggerSource));
    636          
    637            tmpsmcr = TIM3->SMCR;
   \   000004 C65282                LD        A, L:0x5282
   \   000007 B700                  LD        S:?b1, A
    638          
    639            /* Select the Tgigger Source */
    640            tmpsmcr &= (uint8_t)(~TIM_SMCR_TS);
   \   000009 B600                  LD        A, S:?b1
   \   00000B A48F                  AND       A, #0x8f
   \   00000D B700                  LD        S:?b1, A
    641            tmpsmcr |= (uint8_t)TIM3_InputTriggerSource;
   \   00000F B600                  LD        A, S:?b0
   \   000011 BA00                  OR        A, S:?b1
   \   000013 B700                  LD        S:?b1, A
    642          
    643            TIM3->SMCR = (uint8_t)tmpsmcr;
   \   000015 B600                  LD        A, S:?b1
   \   000017 C75282                LD        L:0x5282, A
    644          }
   \   00001A 81                    RET
    645          
    646          /**
    647            * @brief  Enables or Disables the TIM3 Update event.
    648            * @param NewState : The new state of the TIM3 peripheral Preload register.
    649            *   This parameter can be any of the @ref FunctionalState enumeration.
    650            * @retval None
    651            */
    652          

   \                                 In section .near_func.text, align 1, keep-with-next
    653          void TIM3_UpdateDisableConfig(FunctionalState NewState)
    654          {
    655            /* Check the parameters */
    656            assert_param(IS_FUNCTIONAL_STATE(NewState));
    657          
    658            /* Set or Reset the UDIS Bit */
    659            if (NewState != DISABLE)
   \                     TIM3_UpdateDisableConfig:
   \   000000 4D                    TNZ       A
   \   000001 2705                  JREQ      L:??TIM3_UpdateDisableConfig_0
    660            {
    661              TIM3->CR1 |= TIM_CR1_UDIS;
   \   000003 72125280              BSET      L:0x5280, #0x1
   \   000007 81                    RET
    662            }
    663            else
    664            {
    665              TIM3->CR1 &= (uint8_t)(~TIM_CR1_UDIS);
   \                     ??TIM3_UpdateDisableConfig_0:
   \   000008 72135280              BRES      L:0x5280, #0x1
    666            }
    667          }
   \   00000C 81                    RET
    668          
    669          /**
    670            * @brief  Selects the TIM3 Update Request Interrupt source.
    671            * @param  TIM3_UpdateSource : Specifies the Update source.
    672            *   This parameter can be one of the @ref TIM3_UpdateSource_TypeDef enumeration.
    673            * @retval None
    674            */

   \                                 In section .near_func.text, align 1, keep-with-next
    675          void TIM3_UpdateRequestConfig(TIM3_UpdateSource_TypeDef TIM3_UpdateSource)
    676          {
    677            /* Check the parameters */
    678            assert_param(IS_TIM3_UPDATE_SOURCE(TIM3_UpdateSource));
    679          
    680            /* Set or Reset the URS Bit */
    681            if (TIM3_UpdateSource == TIM3_UpdateSource_Regular)
   \                     TIM3_UpdateRequestConfig:
   \   000000 A101                  CP        A, #0x1
   \   000002 2605                  JRNE      L:??TIM3_UpdateRequestConfig_0
    682            {
    683              TIM3->CR1 |= TIM_CR1_URS ;
   \   000004 72145280              BSET      L:0x5280, #0x2
   \   000008 81                    RET
    684            }
    685            else
    686            {
    687              TIM3->CR1 &= (uint8_t)(~TIM_CR1_URS);
   \                     ??TIM3_UpdateRequestConfig_0:
   \   000009 72155280              BRES      L:0x5280, #0x2
    688            }
    689          }
   \   00000D 81                    RET
    690          
    691          /**
    692            * @brief  Enables or Disables the TIM’s Hall sensor interface.
    693            * @param NewState : The new state of the TIM3 Hall sensor interface.
    694            *   This parameter can be any of the @ref FunctionalState enumeration.
    695            * @retval None
    696            */

   \                                 In section .near_func.text, align 1, keep-with-next
    697          void TIM3_SelectHallSensor(FunctionalState NewState)
    698          {
    699            /* Check the parameters */
    700            assert_param(IS_FUNCTIONAL_STATE(NewState));
    701          
    702            /* Set or Reset the TI1S Bit */
    703            if (NewState != DISABLE)
   \                     TIM3_SelectHallSensor:
   \   000000 4D                    TNZ       A
   \   000001 2705                  JREQ      L:??TIM3_SelectHallSensor_0
    704            {
    705              TIM3->CR2 |= TIM_CR2_TI1S;
   \   000003 721E5281              BSET      L:0x5281, #0x7
   \   000007 81                    RET
    706            }
    707            else
    708            {
    709              TIM3->CR2 &= (uint8_t)(~TIM_CR2_TI1S);
   \                     ??TIM3_SelectHallSensor_0:
   \   000008 721F5281              BRES      L:0x5281, #0x7
    710            }
    711          }
   \   00000C 81                    RET
    712          
    713          /**
    714            * @brief  Selects the TIM’s One Pulse Mode.
    715            * @param  TIM3_OPMode : Specifies the OPM Mode to be used.
    716            *   This parameter can be one of the @ref TIM3_OPMode_TypeDef enumeration.
    717            * @retval None
    718            */

   \                                 In section .near_func.text, align 1, keep-with-next
    719          void TIM3_SelectOnePulseMode(TIM3_OPMode_TypeDef TIM3_OPMode)
    720          {
    721            /* Check the parameters */
    722            assert_param(IS_TIM3_OPM_MODE(TIM3_OPMode));
    723          
    724            /* Set or Reset the OPM Bit */
    725            if (TIM3_OPMode == TIM3_OPMode_Single)
   \                     TIM3_SelectOnePulseMode:
   \   000000 A101                  CP        A, #0x1
   \   000002 2605                  JRNE      L:??TIM3_SelectOnePulseMode_0
    726            {
    727              TIM3->CR1 |= TIM_CR1_OPM ;
   \   000004 72165280              BSET      L:0x5280, #0x3
   \   000008 81                    RET
    728            }
    729            else
    730            {
    731              TIM3->CR1 &= (uint8_t)(~TIM_CR1_OPM);
   \                     ??TIM3_SelectOnePulseMode_0:
   \   000009 72175280              BRES      L:0x5280, #0x3
    732            }
    733          }
   \   00000D 81                    RET
    734          
    735          /**
    736            * @brief  Selects the TIM3 Trigger Output Mode.
    737            * @param  TIM3_TRGOSource : Specifies the Trigger Output source.
    738            *   This parameter can be one of the @ref TIM3_TRGOSource_TypeDef enumeration.
    739            * @retval None
    740            */

   \                                 In section .near_func.text, align 1, keep-with-next
    741          void TIM3_SelectOutputTrigger(TIM3_TRGOSource_TypeDef TIM3_TRGOSource)
    742          {
   \                     TIM3_SelectOutputTrigger:
   \   000000 B700                  LD        S:?b0, A
    743            uint8_t tmpcr2 = 0;
   \   000002 3F00                  CLR       S:?b1
    744          
    745            /* Check the parameters */
    746            assert_param(IS_TIM3_TRGO_SOURCE(TIM3_TRGOSource));
    747          
    748            tmpcr2 = TIM3->CR2;
   \   000004 C65281                LD        A, L:0x5281
   \   000007 B700                  LD        S:?b1, A
    749          
    750            /* Reset the MMS Bits */
    751            tmpcr2 &= (uint8_t)(~TIM_CR2_MMS);
   \   000009 B600                  LD        A, S:?b1
   \   00000B A48F                  AND       A, #0x8f
   \   00000D B700                  LD        S:?b1, A
    752          
    753            /* Select the TRGO source */
    754            tmpcr2 |=  (uint8_t)TIM3_TRGOSource;
   \   00000F B600                  LD        A, S:?b0
   \   000011 BA00                  OR        A, S:?b1
   \   000013 B700                  LD        S:?b1, A
    755          
    756            TIM3->CR2 = tmpcr2;
   \   000015 B600                  LD        A, S:?b1
   \   000017 C75281                LD        L:0x5281, A
    757          }
   \   00001A 81                    RET
    758          
    759          /**
    760            * @brief  Selects the TIM3 Slave Mode.
    761            * @param  TIM3_SlaveMode : Specifies the TIM3 Slave Mode.
    762            *   This parameter can be one of the @ref TIM3_SlaveMode_TypeDef enumeration.
    763            * @retval None
    764            */

   \                                 In section .near_func.text, align 1, keep-with-next
    765          void TIM3_SelectSlaveMode(TIM3_SlaveMode_TypeDef TIM3_SlaveMode)
    766          {
   \                     TIM3_SelectSlaveMode:
   \   000000 B700                  LD        S:?b0, A
    767            uint8_t tmpsmcr = 0;
   \   000002 3F00                  CLR       S:?b1
    768          
    769            /* Check the parameters */
    770            assert_param(IS_TIM3_SLAVE_MODE(TIM3_SlaveMode));
    771          
    772            tmpsmcr = TIM3->SMCR;
   \   000004 C65282                LD        A, L:0x5282
   \   000007 B700                  LD        S:?b1, A
    773          
    774            /* Reset the SMS Bits */
    775            tmpsmcr &= (uint8_t)(~TIM_SMCR_SMS);
   \   000009 B600                  LD        A, S:?b1
   \   00000B A4F8                  AND       A, #0xf8
   \   00000D B700                  LD        S:?b1, A
    776          
    777            /* Select the Slave Mode */
    778            tmpsmcr |= (uint8_t)TIM3_SlaveMode;
   \   00000F B600                  LD        A, S:?b0
   \   000011 BA00                  OR        A, S:?b1
   \   000013 B700                  LD        S:?b1, A
    779          
    780            TIM3->SMCR = tmpsmcr;
   \   000015 B600                  LD        A, S:?b1
   \   000017 C75282                LD        L:0x5282, A
    781          }
   \   00001A 81                    RET
    782          
    783          /**
    784            * @brief  Sets or Resets the TIM3 Master/Slave Mode.
    785            * @param NewState : The new state of the synchronization between TIM3 and its slaves (through TRGO).
    786            *   This parameter can be any of the @ref FunctionalState enumeration.
    787            * @retval None
    788            */

   \                                 In section .near_func.text, align 1, keep-with-next
    789          void TIM3_SelectMasterSlaveMode(FunctionalState NewState)
    790          {
    791            /* Check the parameters */
    792            assert_param(IS_FUNCTIONAL_STATE(NewState));
    793          
    794            /* Set or Reset the MSM Bit */
    795            if (NewState != DISABLE)
   \                     TIM3_SelectMasterSlaveMode:
   \   000000 4D                    TNZ       A
   \   000001 2705                  JREQ      L:??TIM3_SelectMasterSlaveMode_0
    796            {
    797              TIM3->SMCR |= TIM_SMCR_MSM;
   \   000003 721E5282              BSET      L:0x5282, #0x7
   \   000007 81                    RET
    798            }
    799            else
    800            {
    801              TIM3->SMCR &= (uint8_t)(~TIM_SMCR_MSM);
   \                     ??TIM3_SelectMasterSlaveMode_0:
   \   000008 721F5282              BRES      L:0x5282, #0x7
    802            }
    803          }
   \   00000C 81                    RET
    804          
    805          /**
    806            * @brief  Configures the TIM3 Encoder Interface.
    807            * @param  TIM3_EncoderMode : Specifies the TIM3 Encoder Mode.
    808            *   This parameter can be one of the @ref TIM3_EncoderMode_TypeDef enumeration.
    809            * @param  TIM3_IC1Polarity : Specifies the IC1 Polarity.
    810            *   This parameter can be one of the @ref TIM3_ICPolarity_TypeDef enumeration.
    811            * @param  TIM3_IC2Polarity : Specifies the IC2 Polarity.
    812            *   This parameter can be one of the @ref TIM3_ICPolarity_TypeDef enumeration.
    813            * @retval None
    814            */

   \                                 In section .near_func.text, align 1, keep-with-next
    815          void TIM3_EncoderInterfaceConfig(TIM3_EncoderMode_TypeDef TIM3_EncoderMode,
    816                                           TIM3_ICPolarity_TypeDef TIM3_IC1Polarity,
    817                                           TIM3_ICPolarity_TypeDef TIM3_IC2Polarity)
    818          {
   \                     TIM3_EncoderInterfaceConfig:
   \   000000 B700                  LD        S:?b4, A
    819            uint8_t tmpsmcr = 0;
   \   000002 3F00                  CLR       S:?b5
    820            uint8_t tmpccmr1 = 0;
   \   000004 3F00                  CLR       S:?b2
    821            uint8_t tmpccmr2 = 0;
   \   000006 3F00                  CLR       S:?b3
    822          
    823            /* Check the parameters */
    824            assert_param(IS_TIM3_ENCODER_MODE(TIM3_EncoderMode));
    825            assert_param(IS_TIM3_IC_POLARITY(TIM3_IC1Polarity));
    826            assert_param(IS_TIM3_IC_POLARITY(TIM3_IC2Polarity));
    827          
    828            tmpsmcr = TIM3->SMCR;
   \   000008 C65282                LD        A, L:0x5282
   \   00000B B700                  LD        S:?b5, A
    829            tmpccmr1 = TIM3->CCMR1;
   \   00000D C65289                LD        A, L:0x5289
   \   000010 B700                  LD        S:?b2, A
    830            tmpccmr2 = TIM3->CCMR2;
   \   000012 C6528A                LD        A, L:0x528a
   \   000015 B700                  LD        S:?b3, A
    831          
    832            /* Set the encoder Mode */
    833            tmpsmcr &= (uint8_t)(TIM_SMCR_MSM | TIM_SMCR_TS)  ;
   \   000017 B600                  LD        A, S:?b5
   \   000019 A4F0                  AND       A, #0xf0
   \   00001B B700                  LD        S:?b5, A
    834            tmpsmcr |= (uint8_t)TIM3_EncoderMode;
   \   00001D B600                  LD        A, S:?b4
   \   00001F BA00                  OR        A, S:?b5
   \   000021 B700                  LD        S:?b5, A
    835          
    836            /* Select the Capture Compare 1 and the Capture Compare 2 as input */
    837            tmpccmr1 &= (uint8_t)(~TIM_CCMR_CCxS);
   \   000023 B600                  LD        A, S:?b2
   \   000025 A4FC                  AND       A, #0xfc
   \   000027 B700                  LD        S:?b2, A
    838            tmpccmr2 &= (uint8_t)(~TIM_CCMR_CCxS);
   \   000029 B600                  LD        A, S:?b3
   \   00002B A4FC                  AND       A, #0xfc
   \   00002D B700                  LD        S:?b3, A
    839            tmpccmr1 |= TIM_CCMR_TIxDirect_Set;
   \   00002F B600                  LD        A, S:?b2
   \   000031 AA01                  OR        A, #0x1
   \   000033 B700                  LD        S:?b2, A
    840            tmpccmr2 |= TIM_CCMR_TIxDirect_Set;
   \   000035 B600                  LD        A, S:?b3
   \   000037 AA01                  OR        A, #0x1
   \   000039 B700                  LD        S:?b3, A
    841          
    842            /* Set the TI1 and the TI2 Polarities */
    843            if (TIM3_IC1Polarity == TIM3_ICPolarity_Falling)
   \   00003B B600                  LD        A, S:?b0
   \   00003D A101                  CP        A, #0x1
   \   00003F 2606                  JRNE      L:??TIM3_EncoderInterfaceConfig_0
    844            {
    845              TIM3->CCER1 |= TIM_CCER1_CC1P ;
   \   000041 7212528B              BSET      L:0x528b, #0x1
   \   000045 2004                  JRA       L:??TIM3_EncoderInterfaceConfig_1
    846            }
    847            else
    848            {
    849              TIM3->CCER1 &= (uint8_t)(~TIM_CCER1_CC1P) ;
   \                     ??TIM3_EncoderInterfaceConfig_0:
   \   000047 7213528B              BRES      L:0x528b, #0x1
    850            }
    851          
    852            if (TIM3_IC2Polarity == TIM3_ICPolarity_Falling)
   \                     ??TIM3_EncoderInterfaceConfig_1:
   \   00004B B600                  LD        A, S:?b1
   \   00004D A101                  CP        A, #0x1
   \   00004F 2606                  JRNE      L:??TIM3_EncoderInterfaceConfig_2
    853            {
    854              TIM3->CCER1 |= TIM_CCER1_CC2P ;
   \   000051 721A528B              BSET      L:0x528b, #0x5
   \   000055 2004                  JRA       L:??TIM3_EncoderInterfaceConfig_3
    855            }
    856            else
    857            {
    858              TIM3->CCER1 &= (uint8_t)(~TIM_CCER1_CC2P) ;
   \                     ??TIM3_EncoderInterfaceConfig_2:
   \   000057 721B528B              BRES      L:0x528b, #0x5
    859            }
    860          
    861            TIM3->SMCR = tmpsmcr;
   \                     ??TIM3_EncoderInterfaceConfig_3:
   \   00005B B600                  LD        A, S:?b5
   \   00005D C75282                LD        L:0x5282, A
    862            TIM3->CCMR1 = tmpccmr1;
   \   000060 B600                  LD        A, S:?b2
   \   000062 C75289                LD        L:0x5289, A
    863            TIM3->CCMR2 = tmpccmr2;
   \   000065 B600                  LD        A, S:?b3
   \   000067 C7528A                LD        L:0x528a, A
    864          }
   \   00006A 81                    RET
    865          
    866          /**
    867            * @brief  Configures the TIM3 Prescaler.
    868            * @param Prescaler : Specifies the Prescaler Register value
    869            *   This parameter can be one of the @ref TIM3_Prescaler_TypeDef enumeration.
    870            * @param  TIM3_PSCReloadMode : Specifies the TIM3 Prescaler Reload mode.
    871            *   This parameter can be one of the @ref TIM3_PSCReloadMode_TypeDef enumeration.
    872            * @retval None
    873            */

   \                                 In section .near_func.text, align 1, keep-with-next
    874          void TIM3_PrescalerConfig(TIM3_Prescaler_TypeDef Prescaler,
    875                                    TIM3_PSCReloadMode_TypeDef TIM3_PSCReloadMode)
    876          {
    877            /* Check the parameters */
    878            assert_param(IS_TIM3_PRESCALER(Prescaler));
    879            assert_param(IS_TIM3_PRESCALER_RELOAD(TIM3_PSCReloadMode));
    880          
    881            /* Set the Prescaler value */
    882            TIM3->PSCR = (uint8_t)(Prescaler);
   \                     TIM3_PrescalerConfig:
   \   000000 C7528E                LD        L:0x528e, A
    883          
    884            /* Set or reset the UG Bit */
    885            if (TIM3_PSCReloadMode == TIM3_PSCReloadMode_Immediate)
   \   000003 B600                  LD        A, S:?b0
   \   000005 A101                  CP        A, #0x1
   \   000007 2605                  JRNE      L:??TIM3_PrescalerConfig_0
    886            {
    887              TIM3->EGR |= TIM_EGR_UG ;
   \   000009 72105288              BSET      L:0x5288, #0x0
   \   00000D 81                    RET
    888            }
    889            else
    890            {
    891              TIM3->EGR &= (uint8_t)(~TIM_EGR_UG) ;
   \                     ??TIM3_PrescalerConfig_0:
   \   00000E 72115288              BRES      L:0x5288, #0x0
    892            }
    893          }
   \   000012 81                    RET
    894          
    895          /**
    896            * @brief  Specifies the TIM3 Counter Mode to be used.
    897            * @param  TIM3_CounterMode : Specifies the Counter Mode to be used
    898            *   This parameter can be one of the @ref TIM3_CounterMode_TypeDef enumeration.
    899            * @retval None
    900            */

   \                                 In section .near_func.text, align 1, keep-with-next
    901          void TIM3_CounterModeConfig(TIM3_CounterMode_TypeDef TIM3_CounterMode)
    902          {
   \                     TIM3_CounterModeConfig:
   \   000000 B700                  LD        S:?b0, A
    903            uint8_t tmpcr1 = 0;
   \   000002 3F00                  CLR       S:?b1
    904          
    905            /* Check the parameters */
    906            assert_param(IS_TIM3_COUNTER_MODE(TIM3_CounterMode));
    907          
    908            tmpcr1 = TIM3->CR1;
   \   000004 C65280                LD        A, L:0x5280
   \   000007 B700                  LD        S:?b1, A
    909          
    910            /* Reset the CMS and DIR Bits */
    911            tmpcr1 &= (uint8_t)((uint8_t)(~TIM_CR1_CMS) & (uint8_t)(~TIM_CR1_DIR));
   \   000009 B600                  LD        A, S:?b1
   \   00000B A48F                  AND       A, #0x8f
   \   00000D B700                  LD        S:?b1, A
    912          
    913            /* Set the Counter Mode */
    914            tmpcr1 |= (uint8_t)TIM3_CounterMode;
   \   00000F B600                  LD        A, S:?b0
   \   000011 BA00                  OR        A, S:?b1
   \   000013 B700                  LD        S:?b1, A
    915          
    916            TIM3->CR1 = tmpcr1;
   \   000015 B600                  LD        A, S:?b1
   \   000017 C75280                LD        L:0x5280, A
    917          }
   \   00001A 81                    RET
    918          
    919          /**
    920            * @brief  Forces the TIM3 Channel1 output waveform to active or inactive level.
    921            * @param  TIM3_ForcedAction : Specifies the forced Action to be set to the output waveform.
    922            *   This parameter can be one of the @ref TIM3_ForcedAction_TypeDef enumeration.
    923            * @retval None
    924            */

   \                                 In section .near_func.text, align 1, keep-with-next
    925          void TIM3_ForcedOC1Config(TIM3_ForcedAction_TypeDef TIM3_ForcedAction)
    926          {
   \                     TIM3_ForcedOC1Config:
   \   000000 B700                  LD        S:?b0, A
    927            uint8_t tmpccmr1 = 0;
   \   000002 3F00                  CLR       S:?b1
    928          
    929            /* Check the parameters */
    930            assert_param(IS_TIM3_FORCED_ACTION(TIM3_ForcedAction));
    931          
    932            tmpccmr1 = TIM3->CCMR1;
   \   000004 C65289                LD        A, L:0x5289
   \   000007 B700                  LD        S:?b1, A
    933          
    934            /* Reset the OCM Bits */
    935            tmpccmr1 &= (uint8_t)(~TIM_CCMR_OCM);
   \   000009 B600                  LD        A, S:?b1
   \   00000B A48F                  AND       A, #0x8f
   \   00000D B700                  LD        S:?b1, A
    936          
    937            /* Configure The Forced output Mode */
    938            tmpccmr1 |= (uint8_t)TIM3_ForcedAction;
   \   00000F B600                  LD        A, S:?b0
   \   000011 BA00                  OR        A, S:?b1
   \   000013 B700                  LD        S:?b1, A
    939          
    940            TIM3->CCMR1 = tmpccmr1;
   \   000015 B600                  LD        A, S:?b1
   \   000017 C75289                LD        L:0x5289, A
    941          }
   \   00001A 81                    RET
    942          
    943          /**
    944            * @brief  Forces the TIM3 Channel2 output waveform to active or inactive level.
    945            * @param  TIM3_ForcedAction : Specifies the forced Action to be set to the output waveform.
    946            *   This parameter can be one of the @ref TIM3_ForcedAction_TypeDef enumeration.
    947            * @retval None
    948            */

   \                                 In section .near_func.text, align 1, keep-with-next
    949          void TIM3_ForcedOC2Config(TIM3_ForcedAction_TypeDef TIM3_ForcedAction)
    950          {
   \                     TIM3_ForcedOC2Config:
   \   000000 B700                  LD        S:?b0, A
    951            uint8_t tmpccmr2 = 0;
   \   000002 3F00                  CLR       S:?b1
    952          
    953            /* Check the parameters */
    954            assert_param(IS_TIM3_FORCED_ACTION(TIM3_ForcedAction));
    955          
    956            tmpccmr2 = TIM3->CCMR2;
   \   000004 C6528A                LD        A, L:0x528a
   \   000007 B700                  LD        S:?b1, A
    957          
    958            /* Reset the OCM Bits */
    959            tmpccmr2 &= (uint8_t)(~TIM_CCMR_OCM);
   \   000009 B600                  LD        A, S:?b1
   \   00000B A48F                  AND       A, #0x8f
   \   00000D B700                  LD        S:?b1, A
    960          
    961            /* Configure The Forced output Mode */
    962            tmpccmr2 |= (uint8_t)TIM3_ForcedAction;
   \   00000F B600                  LD        A, S:?b0
   \   000011 BA00                  OR        A, S:?b1
   \   000013 B700                  LD        S:?b1, A
    963          
    964            TIM3->CCMR2 = tmpccmr2;
   \   000015 B600                  LD        A, S:?b1
   \   000017 C7528A                LD        L:0x528a, A
    965          }
   \   00001A 81                    RET
    966          
    967          /**
    968            * @brief  Enables or disables TIM3 peripheral Preload register on ARR.
    969            * @param NewState : The new state of the TIM3 peripheral Preload register.
    970            *   This parameter can be any of the @ref FunctionalState enumeration.
    971            * @retval None
    972            */

   \                                 In section .near_func.text, align 1, keep-with-next
    973          void TIM3_ARRPreloadConfig(FunctionalState NewState)
    974          {
    975            /* Check the parameters */
    976            assert_param(IS_FUNCTIONAL_STATE(NewState));
    977          
    978            /* Set or Reset the ARPE Bit */
    979            if (NewState != DISABLE)
   \                     TIM3_ARRPreloadConfig:
   \   000000 4D                    TNZ       A
   \   000001 2705                  JREQ      L:??TIM3_ARRPreloadConfig_0
    980            {
    981              TIM3->CR1 |= TIM_CR1_ARPE;
   \   000003 721E5280              BSET      L:0x5280, #0x7
   \   000007 81                    RET
    982            }
    983            else
    984            {
    985              TIM3->CR1 &= (uint8_t)(~TIM_CR1_ARPE);
   \                     ??TIM3_ARRPreloadConfig_0:
   \   000008 721F5280              BRES      L:0x5280, #0x7
    986            }
    987          }
   \   00000C 81                    RET
    988          
    989          /**
    990            * @brief  Enables or disables the TIM3 peripheral Preload Register on CCR1.
    991            * @param NewState : new state of the Capture Compare Preload register.
    992            *   This parameter can be any of the @ref FunctionalState enumeration.
    993            * @retval None
    994            */

   \                                 In section .near_func.text, align 1, keep-with-next
    995          void TIM3_OC1PreloadConfig(FunctionalState NewState)
    996          {
    997            /* Check the parameters */
    998            assert_param(IS_FUNCTIONAL_STATE(NewState));
    999          
   1000            /* Set or Reset the OC1PE Bit */
   1001            if (NewState != DISABLE)
   \                     TIM3_OC1PreloadConfig:
   \   000000 4D                    TNZ       A
   \   000001 2705                  JREQ      L:??TIM3_OC1PreloadConfig_0
   1002            {
   1003              TIM3->CCMR1 |= TIM_CCMR_OCxPE ;
   \   000003 72165289              BSET      L:0x5289, #0x3
   \   000007 81                    RET
   1004            }
   1005            else
   1006            {
   1007              TIM3->CCMR1 &= (uint8_t)(~TIM_CCMR_OCxPE) ;
   \                     ??TIM3_OC1PreloadConfig_0:
   \   000008 72175289              BRES      L:0x5289, #0x3
   1008            }
   1009          }
   \   00000C 81                    RET
   1010          
   1011          /**
   1012            * @brief  Enables or disables the TIM3 peripheral Preload Register on CCR2.
   1013            * @param NewState : The new state of the Capture Compare Preload register.
   1014            *   This parameter can be any of the @ref FunctionalState enumeration.
   1015            * @retval None
   1016            */

   \                                 In section .near_func.text, align 1, keep-with-next
   1017          void TIM3_OC2PreloadConfig(FunctionalState NewState)
   1018          {
   1019            /* Check the parameters */
   1020            assert_param(IS_FUNCTIONAL_STATE(NewState));
   1021          
   1022            /* Set or Reset the OC2PE Bit */
   1023            if (NewState != DISABLE)
   \                     TIM3_OC2PreloadConfig:
   \   000000 4D                    TNZ       A
   \   000001 2705                  JREQ      L:??TIM3_OC2PreloadConfig_0
   1024            {
   1025              TIM3->CCMR2 |= TIM_CCMR_OCxPE ;
   \   000003 7216528A              BSET      L:0x528a, #0x3
   \   000007 81                    RET
   1026            }
   1027            else
   1028            {
   1029              TIM3->CCMR2 &= (uint8_t)(~TIM_CCMR_OCxPE) ;
   \                     ??TIM3_OC2PreloadConfig_0:
   \   000008 7217528A              BRES      L:0x528a, #0x3
   1030            }
   1031          }
   \   00000C 81                    RET
   1032          
   1033          /**
   1034            * @brief  Configures the TIM3 Capture Compare 1 Fast feature.
   1035            * @param NewState : The new state of the Output Compare Fast Enable bit.
   1036            *   This parameter can be any of the @ref FunctionalState enumeration.
   1037            * @retval None
   1038            */

   \                                 In section .near_func.text, align 1, keep-with-next
   1039          void TIM3_OC1FastCmd(FunctionalState NewState)
   1040          {
   1041            /* Check the parameters */
   1042            assert_param(IS_FUNCTIONAL_STATE(NewState));
   1043          
   1044            /* Set or Reset the OC1FE Bit */
   1045            if (NewState != DISABLE)
   \                     TIM3_OC1FastCmd:
   \   000000 4D                    TNZ       A
   \   000001 2705                  JREQ      L:??TIM3_OC1FastCmd_0
   1046            {
   1047              TIM3->CCMR1 |= TIM_CCMR_OCxFE ;
   \   000003 72145289              BSET      L:0x5289, #0x2
   \   000007 81                    RET
   1048            }
   1049            else
   1050            {
   1051              TIM3->CCMR1 &= (uint8_t)(~TIM_CCMR_OCxFE) ;
   \                     ??TIM3_OC1FastCmd_0:
   \   000008 72155289              BRES      L:0x5289, #0x2
   1052            }
   1053          }
   \   00000C 81                    RET
   1054          
   1055          /**
   1056            * @brief  Configures the TIM3 Capture Compare 2 Fast feature.
   1057            * @param NewState : The new state of the Output Compare Fast Enable bit.
   1058            *   This parameter can be any of the @ref FunctionalState enumeration.
   1059            * @retval None
   1060            */
   1061          

   \                                 In section .near_func.text, align 1, keep-with-next
   1062          void TIM3_OC2FastCmd(FunctionalState NewState)
   1063          {
   1064            /* Check the parameters */
   1065            assert_param(IS_FUNCTIONAL_STATE(NewState));
   1066          
   1067            /* Set or Reset the OC2FE Bit */
   1068            if (NewState != DISABLE)
   \                     TIM3_OC2FastCmd:
   \   000000 4D                    TNZ       A
   \   000001 2705                  JREQ      L:??TIM3_OC2FastCmd_0
   1069            {
   1070              TIM3->CCMR2 |= TIM_CCMR_OCxFE ;
   \   000003 7214528A              BSET      L:0x528a, #0x2
   \   000007 81                    RET
   1071            }
   1072            else
   1073            {
   1074              TIM3->CCMR2 &= (uint8_t)(~TIM_CCMR_OCxFE) ;
   \                     ??TIM3_OC2FastCmd_0:
   \   000008 7215528A              BRES      L:0x528a, #0x2
   1075            }
   1076          }
   \   00000C 81                    RET
   1077          
   1078          /**
   1079            * @brief  Configures the TIM3 event to be generated by software.
   1080            * @param  TIM3_EventSource : Specifies the event source.
   1081            *   This parameter can be one of the @ref TIM3_EventSource_TypeDef enumeration.
   1082            * @retval None
   1083            */

   \                                 In section .near_func.text, align 1, keep-with-next
   1084          void TIM3_GenerateEvent(TIM3_EventSource_TypeDef TIM3_EventSource)
   1085          {
   1086            /* Check the parameters */
   1087            assert_param(IS_TIM3_EVENT_SOURCE((uint8_t)TIM3_EventSource));
   1088          
   1089            /* Set the event sources */
   1090            TIM3->EGR |= (uint8_t)TIM3_EventSource;
   \                     TIM3_GenerateEvent:
   \   000000 CA5288                OR        A, L:0x5288
   \   000003 C75288                LD        L:0x5288, A
   1091          }
   \   000006 81                    RET
   1092          
   1093          /**
   1094            * @brief  Configures the TIM3 Channel 1 polarity.
   1095            * @param  TIM3_OCPolarity : Specifies the OC1 Polarity.
   1096            *   This parameter can be one of the @ref TIM3_OCPolarity_TypeDef enumeration.
   1097            * @retval None
   1098            */

   \                                 In section .near_func.text, align 1, keep-with-next
   1099          void TIM3_OC1PolarityConfig(TIM3_OCPolarity_TypeDef TIM3_OCPolarity)
   1100          {
   1101            /* Check the parameters */
   1102            assert_param(IS_TIM3_OC_POLARITY(TIM3_OCPolarity));
   1103          
   1104            /* Set or Reset the CC1P Bit */
   1105            if (TIM3_OCPolarity == TIM3_OCPolarity_Low)
   \                     TIM3_OC1PolarityConfig:
   \   000000 A101                  CP        A, #0x1
   \   000002 2605                  JRNE      L:??TIM3_OC1PolarityConfig_0
   1106            {
   1107              TIM3->CCER1 |= TIM_CCER1_CC1P ;
   \   000004 7212528B              BSET      L:0x528b, #0x1
   \   000008 81                    RET
   1108            }
   1109            else
   1110            {
   1111              TIM3->CCER1 &= (uint8_t)(~TIM_CCER1_CC1P) ;
   \                     ??TIM3_OC1PolarityConfig_0:
   \   000009 7213528B              BRES      L:0x528b, #0x1
   1112            }
   1113          }
   \   00000D 81                    RET
   1114          
   1115          /**
   1116            * @brief  Configures the TIM3 Channel 2 polarity.
   1117            * @param  TIM3_OCPolarity : Specifies the OC2 Polarity.
   1118            *   This parameter can be one of the @ref TIM3_OCPolarity_TypeDef enumeration.
   1119            * @retval None
   1120            */

   \                                 In section .near_func.text, align 1, keep-with-next
   1121          void TIM3_OC2PolarityConfig(TIM3_OCPolarity_TypeDef TIM3_OCPolarity)
   1122          {
   1123            /* Check the parameters */
   1124            assert_param(IS_TIM3_OC_POLARITY(TIM3_OCPolarity));
   1125          
   1126            /* Set or Reset the CC2P Bit */
   1127            if (TIM3_OCPolarity == TIM3_OCPolarity_Low)
   \                     TIM3_OC2PolarityConfig:
   \   000000 A101                  CP        A, #0x1
   \   000002 2605                  JRNE      L:??TIM3_OC2PolarityConfig_0
   1128            {
   1129              TIM3->CCER1 |= TIM_CCER1_CC2P ;
   \   000004 721A528B              BSET      L:0x528b, #0x5
   \   000008 81                    RET
   1130            }
   1131            else
   1132            {
   1133              TIM3->CCER1 &= (uint8_t)(~TIM_CCER1_CC2P) ;
   \                     ??TIM3_OC2PolarityConfig_0:
   \   000009 721B528B              BRES      L:0x528b, #0x5
   1134            }
   1135          }
   \   00000D 81                    RET
   1136          
   1137          /**
   1138            * @brief  Enables or disables the TIM3 Capture Compare Channel x.
   1139            * @param  TIM3_Channel : Specifies the TIM3 Channel.
   1140            *   This parameter can be one of @ref TIM3_Channel_TypeDef enumeration.
   1141            * @param NewState : specifies the TIM3 Channel CCxE bit new state.
   1142            *   This parameter can be any of the @ref FunctionalState enumeration.
   1143            * @retval None
   1144            */

   \                                 In section .near_func.text, align 1, keep-with-next
   1145          void TIM3_CCxCmd(TIM3_Channel_TypeDef TIM3_Channel, FunctionalState NewState)
   1146          {
   1147            /* Check the parameters */
   1148            assert_param(IS_TIM3_CHANNEL(TIM3_Channel));
   1149            assert_param(IS_FUNCTIONAL_STATE(NewState));
   1150          
   1151            if (TIM3_Channel == TIM3_Channel_1)
   \                     TIM3_CCxCmd:
   \   000000 4D                    TNZ       A
   \   000001 260E                  JRNE      L:??TIM3_CCxCmd_0
   1152            {
   1153              /* Set or Reset the CC1E Bit */
   1154              if (NewState != DISABLE)
   \   000003 3D00                  TNZ       S:?b0
   \   000005 2705                  JREQ      L:??TIM3_CCxCmd_1
   1155              {
   1156                TIM3->CCER1 |= TIM_CCER1_CC1E ;
   \   000007 7210528B              BSET      L:0x528b, #0x0
   \   00000B 81                    RET
   1157              }
   1158              else
   1159              {
   1160                TIM3->CCER1 &= (uint8_t)(~TIM_CCER1_CC1E) ;
   \                     ??TIM3_CCxCmd_1:
   \   00000C 7211528B              BRES      L:0x528b, #0x0
   \   000010 81                    RET
   1161              }
   1162          
   1163            }
   1164            else /* if (TIM3_Channel == TIM3_Channel_2) */
   1165            {
   1166              /* Set or Reset the CC2E Bit */
   1167              if (NewState != DISABLE)
   \                     ??TIM3_CCxCmd_0:
   \   000011 3D00                  TNZ       S:?b0
   \   000013 2705                  JREQ      L:??TIM3_CCxCmd_2
   1168              {
   1169                TIM3->CCER1 |= TIM_CCER1_CC2E;
   \   000015 7218528B              BSET      L:0x528b, #0x4
   \   000019 81                    RET
   1170              }
   1171              else
   1172              {
   1173                TIM3->CCER1 &= (uint8_t)(~TIM_CCER1_CC2E) ;
   \                     ??TIM3_CCxCmd_2:
   \   00001A 7219528B              BRES      L:0x528b, #0x4
   1174              }
   1175            }
   1176          }
   \   00001E 81                    RET
   1177          
   1178          /**
   1179            * @brief  Selects the TIM3 Ouput Compare Mode. This function disables the
   1180            * selected channel before changing the Ouput Compare Mode. User has to
   1181            * enable this channel using TIM3_CCxCmd and TIM3_CCxNCmd functions.
   1182            * @param  TIM3_Channel : Specifies the TIM3 Channel.
   1183            *   This parameter can be one of the @ref TIM3_Channel_TypeDef enumeration
   1184            * @param  TIM3_OCMode : Specifies the TIM3 Output Compare Mode.
   1185            * This paramter can be one of the @ref TIM3_OCMode_TypeDef enumeration.
   1186            * @retval None
   1187            */

   \                                 In section .near_func.text, align 1, keep-with-next
   1188          void TIM3_SelectOCxM(TIM3_Channel_TypeDef TIM3_Channel,
   1189                               TIM3_OCMode_TypeDef TIM3_OCMode)
   1190          {
   1191            /* Check the parameters */
   1192            assert_param(IS_TIM3_CHANNEL(TIM3_Channel));
   1193            assert_param(IS_TIM3_OCM(TIM3_OCMode));
   1194          
   1195            if (TIM3_Channel == TIM3_Channel_1)
   \                     TIM3_SelectOCxM:
   \   000000 4D                    TNZ       A
   \   000001 2615                  JRNE      L:??TIM3_SelectOCxM_0
   1196            {
   1197              /* Disable the Channel 1: Reset the CCE Bit */
   1198              TIM3->CCER1 &= (uint8_t)(~TIM_CCER1_CC1E);
   \   000003 7211528B              BRES      L:0x528b, #0x0
   1199          
   1200              /* Reset the Output Compare Bits */
   1201              TIM3->CCMR1 &= (uint8_t)(~TIM_CCMR_OCM);
   \   000007 C65289                LD        A, L:0x5289
   \   00000A A48F                  AND       A, #0x8f
   \   00000C C75289                LD        L:0x5289, A
   1202          
   1203              /* Set the Ouput Compare Mode */
   1204              TIM3->CCMR1 |= (uint8_t)TIM3_OCMode;
   \   00000F B600                  LD        A, S:?b0
   \   000011 CA5289                OR        A, L:0x5289
   \   000014 C75289                LD        L:0x5289, A
   \   000017 81                    RET
   1205            }
   1206            else /* if (TIM3_Channel == TIM3_Channel_2) */
   1207            {
   1208              /* Disable the Channel 2: Reset the CCE Bit */
   1209              TIM3->CCER1 &= (uint8_t)(~TIM_CCER1_CC2E);
   \                     ??TIM3_SelectOCxM_0:
   \   000018 7219528B              BRES      L:0x528b, #0x4
   1210          
   1211              /* Reset the Output Compare Bits */
   1212              TIM3->CCMR2 &= (uint8_t)(~TIM_CCMR_OCM);
   \   00001C C6528A                LD        A, L:0x528a
   \   00001F A48F                  AND       A, #0x8f
   \   000021 C7528A                LD        L:0x528a, A
   1213          
   1214              /* Set the Ouput Compare Mode */
   1215              TIM3->CCMR2 |= (uint8_t)TIM3_OCMode;
   \   000024 B600                  LD        A, S:?b0
   \   000026 CA528A                OR        A, L:0x528a
   \   000029 C7528A                LD        L:0x528a, A
   1216            }
   1217          }
   \   00002C 81                    RET
   1218          
   1219          /**
   1220            * @brief  Sets the TIM3 Counter Register value.
   1221            * @param  Counter : Specifies the Counter register new value.
   1222            *   This parameter is between 0x0000 and 0xFFFF.
   1223            * @retval None
   1224            */

   \                                 In section .near_func.text, align 1, keep-with-next
   1225          void TIM3_SetCounter(uint16_t Counter)
   1226          {
   \                     TIM3_SetCounter:
   \   000000 9093                  LDW       Y, X
   1227            /* Set the Counter Register value */
   1228            TIM3->CNTRH = (uint8_t)(Counter >> 8);
   \   000002 93                    LDW       X, Y
   \   000003 4F                    CLR       A
   \   000004 01                    RRWA      X, A
   \   000005 9F                    LD        A, XL
   \   000006 C7528C                LD        L:0x528c, A
   1229            TIM3->CNTRL = (uint8_t)(Counter);
   \   000009 909F                  LD        A, YL
   \   00000B C7528D                LD        L:0x528d, A
   1230          }
   \   00000E 81                    RET
   1231          
   1232          /**
   1233            * @brief  Sets the TIM3 Autoreload Register value.
   1234            * @param  Autoreload : Specifies the Autoreload register new value.
   1235            *   This parameter is between 0x0000 and 0xFFFF.
   1236            * @retval None
   1237            */

   \                                 In section .near_func.text, align 1, keep-with-next
   1238          void TIM3_SetAutoreload(uint16_t Autoreload)
   1239          {
   \                     TIM3_SetAutoreload:
   \   000000 9093                  LDW       Y, X
   1240            /* Set the Autoreload Register value */
   1241            TIM3->ARRH = (uint8_t)(Autoreload >> 8);
   \   000002 93                    LDW       X, Y
   \   000003 4F                    CLR       A
   \   000004 01                    RRWA      X, A
   \   000005 9F                    LD        A, XL
   \   000006 C7528F                LD        L:0x528f, A
   1242            TIM3->ARRL = (uint8_t)(Autoreload);
   \   000009 909F                  LD        A, YL
   \   00000B C75290                LD        L:0x5290, A
   1243          }
   \   00000E 81                    RET
   1244          
   1245          /**
   1246            * @brief  Sets the TIM3 Capture Compare1 Register value.
   1247            * @param  Compare : Specifies the Capture Compare1 register new value.
   1248            *   This parameter is between 0x0000 and 0xFFFF.
   1249            * @retval None
   1250            */

   \                                 In section .near_func.text, align 1, keep-with-next
   1251          void TIM3_SetCompare1(uint16_t Compare)
   1252          {
   \                     TIM3_SetCompare1:
   \   000000 9093                  LDW       Y, X
   1253            /* Set the Capture Compare1 Register value */
   1254            TIM3->CCR1H = (uint8_t)(Compare >> 8);
   \   000002 93                    LDW       X, Y
   \   000003 4F                    CLR       A
   \   000004 01                    RRWA      X, A
   \   000005 9F                    LD        A, XL
   \   000006 C75291                LD        L:0x5291, A
   1255            TIM3->CCR1L = (uint8_t)(Compare);
   \   000009 909F                  LD        A, YL
   \   00000B C75292                LD        L:0x5292, A
   1256          }
   \   00000E 81                    RET
   1257          
   1258          /**
   1259            * @brief  Sets the TIM3 Capture Compare2 Register value.
   1260            * @param  Compare : Specifies the Capture Compare2 register new value.
   1261            *   This parameter is between 0x0000 and 0xFFFF.
   1262            * @retval None
   1263            */

   \                                 In section .near_func.text, align 1, keep-with-next
   1264          void TIM3_SetCompare2(uint16_t Compare)
   1265          {
   \                     TIM3_SetCompare2:
   \   000000 9093                  LDW       Y, X
   1266            /* Set the Capture Compare2 Register value */
   1267            TIM3->CCR2H = (uint8_t)(Compare >> 8);
   \   000002 93                    LDW       X, Y
   \   000003 4F                    CLR       A
   \   000004 01                    RRWA      X, A
   \   000005 9F                    LD        A, XL
   \   000006 C75293                LD        L:0x5293, A
   1268            TIM3->CCR2L = (uint8_t)(Compare);
   \   000009 909F                  LD        A, YL
   \   00000B C75294                LD        L:0x5294, A
   1269          }
   \   00000E 81                    RET
   1270          
   1271          /**
   1272            * @brief  Sets the TIM3 Input Capture 1 prescaler.
   1273            * @param  TIM3_IC1Prescaler : Specifies the Input Capture prescaler new value
   1274            *   This parameter can be one of the @ref TIM3_ICPSC_TypeDef enumeration.
   1275            * @retval None
   1276            */

   \                                 In section .near_func.text, align 1, keep-with-next
   1277          void TIM3_SetIC1Prescaler(TIM3_ICPSC_TypeDef TIM3_IC1Prescaler)
   1278          {
   \                     TIM3_SetIC1Prescaler:
   \   000000 B700                  LD        S:?b0, A
   1279            uint8_t tmpccmr1 = 0;
   \   000002 3F00                  CLR       S:?b1
   1280          
   1281            /* Check the parameters */
   1282            assert_param(IS_TIM3_IC_PRESCALER(TIM3_IC1Prescaler));
   1283          
   1284            tmpccmr1 = TIM3->CCMR1;
   \   000004 C65289                LD        A, L:0x5289
   \   000007 B700                  LD        S:?b1, A
   1285          
   1286            /* Reset the IC1PSC Bits */
   1287            tmpccmr1 &= (uint8_t)(~TIM_CCMR_ICxPSC);
   \   000009 B600                  LD        A, S:?b1
   \   00000B A4F3                  AND       A, #0xf3
   \   00000D B700                  LD        S:?b1, A
   1288          
   1289            /* Set the IC1PSC value */
   1290            tmpccmr1 |= (uint8_t)TIM3_IC1Prescaler;
   \   00000F B600                  LD        A, S:?b0
   \   000011 BA00                  OR        A, S:?b1
   \   000013 B700                  LD        S:?b1, A
   1291          
   1292            TIM3->CCMR1 = tmpccmr1;
   \   000015 B600                  LD        A, S:?b1
   \   000017 C75289                LD        L:0x5289, A
   1293          }
   \   00001A 81                    RET
   1294          
   1295          /**
   1296            * @brief  Sets the TIM3 Input Capture 2 prescaler.
   1297            * @param  TIM3_IC2Prescaler : Specifies the Input Capture prescaler new value
   1298            *   This parameter can be one of the @ref TIM3_ICPSC_TypeDef enumeration.
   1299            * @retval None
   1300            */

   \                                 In section .near_func.text, align 1, keep-with-next
   1301          void TIM3_SetIC2Prescaler(TIM3_ICPSC_TypeDef TIM3_IC2Prescaler)
   1302          {
   \                     TIM3_SetIC2Prescaler:
   \   000000 B700                  LD        S:?b0, A
   1303            uint8_t tmpccmr2 = 0;
   \   000002 3F00                  CLR       S:?b1
   1304          
   1305            /* Check the parameters */
   1306            assert_param(IS_TIM3_IC_PRESCALER(TIM3_IC2Prescaler));
   1307          
   1308            tmpccmr2 = TIM3->CCMR2;
   \   000004 C6528A                LD        A, L:0x528a
   \   000007 B700                  LD        S:?b1, A
   1309          
   1310            /* Reset the IC2PSC Bits */
   1311            tmpccmr2 &= (uint8_t)(~TIM_CCMR_ICxPSC);
   \   000009 B600                  LD        A, S:?b1
   \   00000B A4F3                  AND       A, #0xf3
   \   00000D B700                  LD        S:?b1, A
   1312          
   1313            /* Set the IC2PSC value */
   1314            tmpccmr2 |= (uint8_t)TIM3_IC2Prescaler;
   \   00000F B600                  LD        A, S:?b0
   \   000011 BA00                  OR        A, S:?b1
   \   000013 B700                  LD        S:?b1, A
   1315          
   1316            TIM3->CCMR2 = tmpccmr2;
   \   000015 B600                  LD        A, S:?b1
   \   000017 C7528A                LD        L:0x528a, A
   1317          }
   \   00001A 81                    RET
   1318          
   1319          /**
   1320            * @brief  Gets the TIM3 Input Capture 1 value.
   1321            * @param  None
   1322            * @retval Capture Compare 1 Register value.
   1323            */

   \                                 In section .near_func.text, align 1
   1324          uint16_t TIM3_GetCapture1(void)
   1325          {
   1326            uint16_t tmpccr1 = 0;
   \                     TIM3_GetCapture1:
   \   000000 905F                  CLRW      Y
   1327            uint8_t tmpccr1l, tmpccr1h;
   1328          
   1329            tmpccr1h = TIM3->CCR1H;
   \   000002 C65291                LD        A, L:0x5291
   \   000005 B700                  LD        S:?b0, A
   1330            tmpccr1l = TIM3->CCR1L;
   \   000007 C65292                LD        A, L:0x5292
   1331          
   1332            tmpccr1 = (uint16_t)(tmpccr1l);
   \   00000A 5F                    CLRW      X
   \   00000B 97                    LD        XL, A
   \   00000C 9093                  LDW       Y, X
   1333            tmpccr1 |= (uint16_t)((uint16_t)tmpccr1h << 8);
   \   00000E 5F                    CLRW      X
   \   00000F 41                    EXG       A, XL
   \   000010 B600                  LD        A, S:?b0
   \   000012 41                    EXG       A, XL
   \   000013 4F                    CLR       A
   \   000014 02                    RLWA      X, A
   \   000015 BF00                  LDW       S:?w0, X
   \   000017 51                    EXGW      X, Y
   \   000018 01                    RRWA      X, A
   \   000019 BA00                  OR        A, S:?b1
   \   00001B 01                    RRWA      X, A
   \   00001C BA00                  OR        A, S:?b0
   \   00001E 01                    RRWA      X, A
   \   00001F 51                    EXGW      X, Y
   1334            /* Get the Capture 1 Register value */
   1335            return ((uint16_t)tmpccr1);
   \   000020 93                    LDW       X, Y
   \   000021 81                    RET
   1336          }
   1337          
   1338          /**
   1339            * @brief  Gets the TIM3 Input Capture 2 value.
   1340            * @param  None
   1341            * @retval Capture Compare 2 Register value.
   1342            */

   \                                 In section .near_func.text, align 1
   1343          uint16_t TIM3_GetCapture2(void)
   1344          {
   1345            uint16_t tmpccr2 = 0;
   \                     TIM3_GetCapture2:
   \   000000 905F                  CLRW      Y
   1346            uint8_t tmpccr2l, tmpccr2h;
   1347          
   1348            tmpccr2h = TIM3->CCR2H;
   \   000002 C65293                LD        A, L:0x5293
   \   000005 B700                  LD        S:?b0, A
   1349            tmpccr2l = TIM3->CCR2L;
   \   000007 C65294                LD        A, L:0x5294
   1350          
   1351            tmpccr2 = (uint16_t)(tmpccr2l);
   \   00000A 5F                    CLRW      X
   \   00000B 97                    LD        XL, A
   \   00000C 9093                  LDW       Y, X
   1352            tmpccr2 |= (uint16_t)((uint16_t)tmpccr2h << 8);
   \   00000E 5F                    CLRW      X
   \   00000F 41                    EXG       A, XL
   \   000010 B600                  LD        A, S:?b0
   \   000012 41                    EXG       A, XL
   \   000013 4F                    CLR       A
   \   000014 02                    RLWA      X, A
   \   000015 BF00                  LDW       S:?w0, X
   \   000017 51                    EXGW      X, Y
   \   000018 01                    RRWA      X, A
   \   000019 BA00                  OR        A, S:?b1
   \   00001B 01                    RRWA      X, A
   \   00001C BA00                  OR        A, S:?b0
   \   00001E 01                    RRWA      X, A
   \   00001F 51                    EXGW      X, Y
   1353            /* Get the Capture 2 Register value */
   1354            return ((uint16_t)tmpccr2);
   \   000020 93                    LDW       X, Y
   \   000021 81                    RET
   1355          }
   1356          
   1357          /**
   1358            * @brief  Gets the TIM3 Counter value.
   1359            * @param  None
   1360            * @retval Counter Register value.
   1361            */

   \                                 In section .near_func.text, align 1
   1362          uint16_t TIM3_GetCounter(void)
   1363          {
   1364            uint16_t tmpcnt = 0;
   \                     TIM3_GetCounter:
   \   000000 905F                  CLRW      Y
   1365            uint8_t tmpcntrl, tmpcntrh;
   1366          
   1367            tmpcntrh = TIM3->CNTRH;
   \   000002 C6528C                LD        A, L:0x528c
   \   000005 B700                  LD        S:?b0, A
   1368            tmpcntrl = TIM3->CNTRL;
   \   000007 C6528D                LD        A, L:0x528d
   1369          
   1370            tmpcnt = (uint16_t)(tmpcntrl);
   \   00000A 5F                    CLRW      X
   \   00000B 97                    LD        XL, A
   \   00000C 9093                  LDW       Y, X
   1371            tmpcnt |= (uint16_t)((uint16_t)tmpcntrh << 8);
   \   00000E 5F                    CLRW      X
   \   00000F 41                    EXG       A, XL
   \   000010 B600                  LD        A, S:?b0
   \   000012 41                    EXG       A, XL
   \   000013 4F                    CLR       A
   \   000014 02                    RLWA      X, A
   \   000015 BF00                  LDW       S:?w0, X
   \   000017 51                    EXGW      X, Y
   \   000018 01                    RRWA      X, A
   \   000019 BA00                  OR        A, S:?b1
   \   00001B 01                    RRWA      X, A
   \   00001C BA00                  OR        A, S:?b0
   \   00001E 01                    RRWA      X, A
   \   00001F 51                    EXGW      X, Y
   1372            /* Get the Counter Register value */
   1373            return ((uint16_t)tmpcnt);
   \   000020 93                    LDW       X, Y
   \   000021 81                    RET
   1374          }
   1375          
   1376          /**
   1377            * @brief  Gets the TIM3 Prescaler value.
   1378            * @param  None
   1379            * @retval TIM3_Prescaler_TypeDef : Prescaler Register value.
   1380            */

   \                                 In section .near_func.text, align 1
   1381          TIM3_Prescaler_TypeDef TIM3_GetPrescaler(void)
   1382          {
   1383            /* Get the Prescaler Register value */
   1384            return ((TIM3_Prescaler_TypeDef)TIM3->PSCR);
   \                     TIM3_GetPrescaler:
   \   000000 C6528E                LD        A, L:0x528e
   \   000003 81                    RET
   1385          }
   1386          
   1387          /**
   1388            * @brief  Selects the TIM3 peripheral Capture Compare DMA source.
   1389            * @param  NewState: new state of the Capture Compare DMA source.
   1390            *   This parameter can be: ENABLE or DISABLE.
   1391            * @retval None
   1392            */

   \                                 In section .near_func.text, align 1
   1393          void TIM3_SelectCCDMA(FunctionalState NewState)
   1394          {
   1395            /* Check the parameters */
   1396            assert_param(IS_FUNCTIONAL_STATE(NewState));
   1397          
   1398            if (NewState != DISABLE)
   \                     TIM3_SelectCCDMA:
   \   000000 4D                    TNZ       A
   \   000001 2705                  JREQ      L:??TIM3_SelectCCDMA_0
   1399            {
   1400              /* Set the CCDS Bit */
   1401              TIM3->CR2 |= TIM_CR2_CCDS;
   \   000003 72165281              BSET      L:0x5281, #0x3
   \   000007 81                    RET
   1402            }
   1403            else
   1404            {
   1405              /* Reset the CCDS Bit */
   1406              TIM3->CR2 &= (uint8_t)(~TIM_CR2_CCDS);
   \                     ??TIM3_SelectCCDMA_0:
   \   000008 72175281              BRES      L:0x5281, #0x3
   1407            }
   1408          }
   \   00000C 81                    RET
   1409          
   1410          /**
   1411            * @brief  Checks whether the specified TIM3 flag is set or not.
   1412            * @param  TIM3_FLAG : Specifies the flag to check.
   1413            *   This parameter can be one of the @ref TIM3_FLAG_TypeDef enumeration.
   1414            * @retval FlagStatus : The new state of TIM3_FLAG.
   1415            *   This parameter can be any of the @ref FlagStatus enumeration.
   1416            */

   \                                 In section .near_func.text, align 1
   1417          FlagStatus TIM3_GetFlagStatus(TIM3_FLAG_TypeDef TIM3_FLAG)
   1418          {
   1419            FlagStatus bitstatus = RESET;
   \                     TIM3_GetFlagStatus:
   \   000000 3F00                  CLR       S:?b0
   1420            uint8_t tim3_flag_l = 0, tim3_flag_h = 0;
   \   000002 3F00                  CLR       S:?b2
   \   000004 3F00                  CLR       S:?b1
   1421          
   1422            /* Check the parameters */
   1423            assert_param(IS_TIM3_GET_FLAG(TIM3_FLAG));
   1424          
   1425            tim3_flag_l = (uint8_t)(TIM3->SR1 & (uint8_t)(TIM3_FLAG));
   \   000006 9F                    LD        A, XL
   \   000007 C45286                AND       A, L:0x5286
   \   00000A B700                  LD        S:?b2, A
   1426            tim3_flag_h = (uint8_t)(TIM3->SR2 & (uint8_t)((uint16_t)TIM3_FLAG >> 8));
   \   00000C 4F                    CLR       A
   \   00000D 01                    RRWA      X, A
   \   00000E 9F                    LD        A, XL
   \   00000F C45287                AND       A, L:0x5287
   \   000012 B700                  LD        S:?b1, A
   1427          
   1428            if ((uint8_t)(tim3_flag_l | tim3_flag_h) != 0)
   \   000014 B600                  LD        A, S:?b1
   \   000016 BA00                  OR        A, S:?b2
   \   000018 A100                  CP        A, #0x0
   \   00001A 2706                  JREQ      L:??TIM3_GetFlagStatus_0
   1429            {
   1430              bitstatus = SET;
   \   00001C 35010000              MOV       S:?b0, #0x1
   \   000020 2002                  JRA       L:??TIM3_GetFlagStatus_1
   1431            }
   1432            else
   1433            {
   1434              bitstatus = RESET;
   \                     ??TIM3_GetFlagStatus_0:
   \   000022 3F00                  CLR       S:?b0
   1435            }
   1436            return ((FlagStatus)bitstatus);
   \                     ??TIM3_GetFlagStatus_1:
   \   000024 B600                  LD        A, S:?b0
   \   000026 81                    RET
   1437          }
   1438          
   1439          /**
   1440            * @brief  Clears the TIM’s pending flags.
   1441            * @param  TIM3_FLAG : Specifies the flag to clear.
   1442            *   This parameter can be one of the @ref TIM3_FLAG_TypeDef enumeration.
   1443            * @retval None
   1444            */

   \                                 In section .near_func.text, align 1
   1445          void TIM3_ClearFlag(TIM3_FLAG_TypeDef TIM3_FLAG)
   1446          {
   1447            /* Check the parameters */
   1448            assert_param(IS_TIM3_CLEAR_FLAG((uint16_t)TIM3_FLAG));
   1449            /* Clear the flags (rc_w0) clear this bit by writing 0. Writing ‘1’ has no effect*/
   1450            TIM3->SR1 = (uint8_t)(~(uint8_t)(TIM3_FLAG));
   \                     TIM3_ClearFlag:
   \   000000 9F                    LD        A, XL
   \   000001 43                    CPL       A
   \   000002 C75286                LD        L:0x5286, A
   1451            TIM3->SR2 = (uint8_t)(~(uint8_t)((uint16_t)TIM3_FLAG >> 8));
   \   000005 4F                    CLR       A
   \   000006 01                    RRWA      X, A
   \   000007 9F                    LD        A, XL
   \   000008 43                    CPL       A
   \   000009 C75287                LD        L:0x5287, A
   1452          }
   \   00000C 81                    RET
   1453          
   1454          /**
   1455            * @brief  Checks whether the TIM3 interrupt has occurred or not.
   1456            * @param  TIM3_IT : Specifies the TIM3 interrupt source to check.
   1457            *   This parameter can be one of the @ref TIM3_IT_TypeDef enumeration.
   1458            * @retval ITStatus : The new state of the TIM3_IT.
   1459            *   This parameter can be any of the @ref ITStatus enumeration.
   1460            */
   1461          

   \                                 In section .near_func.text, align 1
   1462          ITStatus TIM3_GetITStatus(TIM3_IT_TypeDef TIM3_IT)
   1463          {
   \                     TIM3_GetITStatus:
   \   000000 B700                  LD        S:?b3, A
   1464            ITStatus bitstatus = RESET;
   \   000002 3F00                  CLR       S:?b0
   1465          
   1466            uint8_t TIM3_itStatus = 0x0, TIM3_itEnable = 0x0;
   \   000004 3F00                  CLR       S:?b2
   \   000006 3F00                  CLR       S:?b1
   1467          
   1468            /* Check the parameters */
   1469            assert_param(IS_TIM3_GET_IT(TIM3_IT));
   1470          
   1471            TIM3_itStatus = (uint8_t)(TIM3->SR1 & (uint8_t)TIM3_IT);
   \   000008 B600                  LD        A, S:?b3
   \   00000A C45286                AND       A, L:0x5286
   \   00000D B700                  LD        S:?b2, A
   1472          
   1473            TIM3_itEnable = (uint8_t)(TIM3->IER & (uint8_t)TIM3_IT);
   \   00000F B600                  LD        A, S:?b3
   \   000011 C45285                AND       A, L:0x5285
   \   000014 B700                  LD        S:?b1, A
   1474          
   1475            if ((TIM3_itStatus != (uint8_t)RESET) && (TIM3_itEnable != (uint8_t)RESET))
   \   000016 3D00                  TNZ       S:?b2
   \   000018 270A                  JREQ      L:??TIM3_GetITStatus_0
   \   00001A 3D00                  TNZ       S:?b1
   \   00001C 2706                  JREQ      L:??TIM3_GetITStatus_0
   1476            {
   1477              bitstatus = (ITStatus)SET;
   \   00001E 35010000              MOV       S:?b0, #0x1
   \   000022 2002                  JRA       L:??TIM3_GetITStatus_1
   1478            }
   1479            else
   1480            {
   1481              bitstatus = (ITStatus)RESET;
   \                     ??TIM3_GetITStatus_0:
   \   000024 3F00                  CLR       S:?b0
   1482            }
   1483            return ((ITStatus)bitstatus);
   \                     ??TIM3_GetITStatus_1:
   \   000026 B600                  LD        A, S:?b0
   \   000028 81                    RET
   1484          }
   1485          
   1486          /**
   1487            * @brief  Clears the TIM's interrupt pending bits.
   1488            * @param  TIM3_IT : Specifies the pending bit to clear.
   1489            *   This parameter can be one of the @ref TIM3_IT_TypeDef enumeration.
   1490            * @retval None
   1491            */

   \                                 In section .near_func.text, align 1
   1492          void TIM3_ClearITPendingBit(TIM3_IT_TypeDef TIM3_IT)
   1493          {
   1494            /* Check the parameters */
   1495            assert_param(IS_TIM3_IT(TIM3_IT));
   1496          
   1497            /* Clear the IT pending Bit */
   1498            TIM3->SR1 = (uint8_t)(~(uint8_t)TIM3_IT);
   \                     TIM3_ClearITPendingBit:
   \   000000 43                    CPL       A
   \   000001 C75286                LD        L:0x5286, A
   1499          }
   \   000004 81                    RET
   1500          
   1501          /**
   1502            * @brief  Configure the TI1 as Input.
   1503            * @param  TIM3_ICPolarity : The Input Polarity.
   1504            *   This parameter can be one of the @ref TIM3_ICPolarity_TypeDef enumeration.
   1505            * @param  TIM3_ICSelection : Specifies the input to be used.
   1506            *   This parameter can be one of the @ref TIM3_ICSelection_TypeDef enumeration.
   1507            * @param  TIM3_ICFilter : Specifies the Input Capture Filter.
   1508            *   This parameter must be a value between 0x00 and 0x0F.
   1509            * @retval None
   1510            */

   \                                 In section .near_func.text, align 1
   1511          static void TI1_Config(TIM3_ICPolarity_TypeDef TIM3_ICPolarity,
   1512                                 TIM3_ICSelection_TypeDef TIM3_ICSelection,
   1513                                 uint8_t TIM3_ICFilter)
   1514          {
   \                     TI1_Config:
   \   000000 B700                  LD        S:?b2, A
   1515            uint8_t tmpccmr1 = 0;
   \   000002 3F00                  CLR       S:?b3
   1516            uint8_t tmpicpolarity = TIM3_ICPolarity;
   1517            tmpccmr1 = TIM3->CCMR1;
   \   000004 C65289                LD        A, L:0x5289
   \   000007 B700                  LD        S:?b3, A
   1518          
   1519            /* Check the parameters */
   1520            assert_param(IS_TIM3_IC_POLARITY(TIM3_ICPolarity));
   1521            assert_param(IS_TIM3_IC_SELECTION(TIM3_ICSelection));
   1522            assert_param(IS_TIM3_IC_FILTER(TIM3_ICFilter));
   1523          
   1524            /* Disable the Channel 1: Reset the CCE Bit */
   1525            TIM3->CCER1 &=  (uint8_t)(~TIM_CCER1_CC1E);
   \   000009 7211528B              BRES      L:0x528b, #0x0
   1526          
   1527            /* Select the Input and set the filter */
   1528            tmpccmr1 &= (uint8_t)(~TIM_CCMR_CCxS) & (uint8_t)(~TIM_CCMR_ICxF);
   \   00000D B600                  LD        A, S:?b3
   \   00000F A40C                  AND       A, #0xc
   \   000011 B700                  LD        S:?b3, A
   1529            tmpccmr1 |= (uint8_t)(((uint8_t)(TIM3_ICSelection)) | ((uint8_t)(TIM3_ICFilter << 4)));
   \   000013 B600                  LD        A, S:?b1
   \   000015 4E                    SWAP      A
   \   000016 A4F0                  AND       A, #0xf0
   \   000018 BA00                  OR        A, S:?b0
   \   00001A BA00                  OR        A, S:?b3
   \   00001C B700                  LD        S:?b3, A
   1530          
   1531            TIM3->CCMR1 = tmpccmr1;
   \   00001E B600                  LD        A, S:?b3
   \   000020 C75289                LD        L:0x5289, A
   1532          
   1533            /* Select the Polarity */
   1534            if (tmpicpolarity == (uint8_t)(TIM3_ICPolarity_Falling))
   \   000023 B600                  LD        A, S:?b2
   \   000025 A101                  CP        A, #0x1
   \   000027 2606                  JRNE      L:??TI1_Config_0
   1535            {
   1536              TIM3->CCER1 |= TIM_CCER1_CC1P;
   \   000029 7212528B              BSET      L:0x528b, #0x1
   \   00002D 2004                  JRA       L:??TI1_Config_1
   1537            }
   1538            else
   1539            {
   1540              TIM3->CCER1 &= (uint8_t)(~TIM_CCER1_CC1P);
   \                     ??TI1_Config_0:
   \   00002F 7213528B              BRES      L:0x528b, #0x1
   1541            }
   1542          
   1543            /* Set the CCE Bit */
   1544            TIM3->CCER1 |=  TIM_CCER1_CC1E;
   \                     ??TI1_Config_1:
   \   000033 7210528B              BSET      L:0x528b, #0x0
   1545          }
   \   000037 81                    RET
   1546          
   1547          /**
   1548            * @brief  Configure the TI2 as Input.
   1549            * @param  TIM3_ICPolarity : The Input Polarity.
   1550            *   This parameter can be one of the @ref TIM3_ICPolarity_TypeDef enumeration.
   1551            * @param  TIM3_ICSelection : Specifies the input to be used.
   1552            *   This parameter can be one of the @ref TIM3_ICSelection_TypeDef enumeration.
   1553            * @param  TIM3_ICFilter : Specifies the Input Capture Filter.
   1554            *   This parameter must be a value between 0x00 and 0x0F.
   1555            * @retval None
   1556            */

   \                                 In section .near_func.text, align 1
   1557          static void TI2_Config(TIM3_ICPolarity_TypeDef TIM3_ICPolarity,
   1558                                 TIM3_ICSelection_TypeDef TIM3_ICSelection,
   1559                                 uint8_t TIM3_ICFilter)
   1560          {
   \                     TI2_Config:
   \   000000 B700                  LD        S:?b2, A
   1561            uint8_t tmpccmr2 = 0;
   \   000002 3F00                  CLR       S:?b3
   1562            uint8_t tmpicpolarity = TIM3_ICPolarity;
   1563          
   1564            /* Check the parameters */
   1565            assert_param(IS_TIM3_IC_POLARITY(TIM3_ICPolarity));
   1566            assert_param(IS_TIM3_IC_SELECTION(TIM3_ICSelection));
   1567            assert_param(IS_TIM3_IC_FILTER(TIM3_ICFilter));
   1568          
   1569            tmpccmr2 = TIM3->CCMR2;
   \   000004 C6528A                LD        A, L:0x528a
   \   000007 B700                  LD        S:?b3, A
   1570          
   1571            /* Disable the Channel 2: Reset the CCE Bit */
   1572            TIM3->CCER1 &=  (uint8_t)(~TIM_CCER1_CC2E);
   \   000009 7219528B              BRES      L:0x528b, #0x4
   1573          
   1574            /* Select the Input and set the filter */
   1575            tmpccmr2 &= (uint8_t)(~TIM_CCMR_CCxS) & (uint8_t)(~TIM_CCMR_ICxF);
   \   00000D B600                  LD        A, S:?b3
   \   00000F A40C                  AND       A, #0xc
   \   000011 B700                  LD        S:?b3, A
   1576            tmpccmr2 |= (uint8_t)(((uint8_t)(TIM3_ICSelection)) | ((uint8_t)(TIM3_ICFilter << 4)));
   \   000013 B600                  LD        A, S:?b1
   \   000015 4E                    SWAP      A
   \   000016 A4F0                  AND       A, #0xf0
   \   000018 BA00                  OR        A, S:?b0
   \   00001A BA00                  OR        A, S:?b3
   \   00001C B700                  LD        S:?b3, A
   1577          
   1578            TIM3->CCMR2 = tmpccmr2;
   \   00001E B600                  LD        A, S:?b3
   \   000020 C7528A                LD        L:0x528a, A
   1579          
   1580            /* Select the Polarity */
   1581            if (tmpicpolarity == TIM3_ICPolarity_Falling)
   \   000023 B600                  LD        A, S:?b2
   \   000025 A101                  CP        A, #0x1
   \   000027 2606                  JRNE      L:??TI2_Config_0
   1582            {
   1583              TIM3->CCER1 |= TIM_CCER1_CC2P ;
   \   000029 721A528B              BSET      L:0x528b, #0x5
   \   00002D 2004                  JRA       L:??TI2_Config_1
   1584            }
   1585            else
   1586            {
   1587              TIM3->CCER1 &= (uint8_t)(~TIM_CCER1_CC2P) ;
   \                     ??TI2_Config_0:
   \   00002F 721B528B              BRES      L:0x528b, #0x5
   1588            }
   1589          
   1590            /* Set the CCE Bit */
   1591            TIM3->CCER1 |=  TIM_CCER1_CC2E;
   \                     ??TI2_Config_1:
   \   000033 7218528B              BSET      L:0x528b, #0x4
   1592          }
   \   000037 81                    RET
   1593          
   1594          
   1595          /**
   1596            * @}
   1597            */
   1598          
   1599          /**
   1600            * @}
   1601            */
   1602          
   1603          /******************* (C) COPYRIGHT 2010 STMicroelectronics *****END OF FILE****/

   Section sizes:

     Function/Label              Bytes
     --------------              -----
     TIM3_DeInit                  101
     TIM3_TimeBaseInit             42
     TIM3_OC1Init                  93
     TIM3_OC2Init                  93
     TIM3_BKRConfig                22
     TIM3_ICInit                   35
     TIM3_PWMIConfig              120
     TIM3_Cmd                      13
     TIM3_CtrlPWMOutputs           13
     TIM3_ITConfig                 19
     TIM3_DMACmd                   19
     TIM3_InternalClockConfig       9
     TIM3_ETRClockMode1Config      36
     TIM3_ETRClockMode2Config       8
     TIM3_ETRConfig                15
     TIM3_TIxExternalClockConfig   45
     TIM3_SelectInputTrigger       27
     TIM3_UpdateDisableConfig      13
     TIM3_UpdateRequestConfig      14
     TIM3_SelectHallSensor         13
     TIM3_SelectOnePulseMode       14
     TIM3_SelectOutputTrigger      27
     TIM3_SelectSlaveMode          27
     TIM3_SelectMasterSlaveMode    13
     TIM3_EncoderInterfaceConfig  107
     TIM3_PrescalerConfig          19
     TIM3_CounterModeConfig        27
     TIM3_ForcedOC1Config          27
     TIM3_ForcedOC2Config          27
     TIM3_ARRPreloadConfig         13
     TIM3_OC1PreloadConfig         13
     TIM3_OC2PreloadConfig         13
     TIM3_OC1FastCmd               13
     TIM3_OC2FastCmd               13
     TIM3_GenerateEvent             7
     TIM3_OC1PolarityConfig        14
     TIM3_OC2PolarityConfig        14
     TIM3_CCxCmd                   31
     TIM3_SelectOCxM               45
     TIM3_SetCounter               15
     TIM3_SetAutoreload            15
     TIM3_SetCompare1              15
     TIM3_SetCompare2              15
     TIM3_SetIC1Prescaler          27
     TIM3_SetIC2Prescaler          27
     TIM3_GetCapture1              34
     TIM3_GetCapture2              34
     TIM3_GetCounter               34
     TIM3_GetPrescaler              4
     TIM3_SelectCCDMA              13
     TIM3_GetFlagStatus            39
     TIM3_ClearFlag                13
     TIM3_GetITStatus              41
     TIM3_ClearITPendingBit         5
     TI1_Config                    56
     TI2_Config                    56

 
 1 657 bytes in section .near_func.text
 
 1 657 bytes of CODE memory

Errors: none
Warnings: none
